
SmartAccess_ControlSystem.elf:     file format elf32-littlearm

Sections:
Idx Name          Size      VMA       LMA       File off  Algn
  0 .isr_vector   00000130  08000000  08000000  00010000  2**0
                  CONTENTS, ALLOC, LOAD, READONLY, DATA
  1 .text         00001750  08000130  08000130  00010130  2**2
                  CONTENTS, ALLOC, LOAD, READONLY, CODE
  2 .rodata       00000030  08001880  08001880  00011880  2**2
                  CONTENTS, ALLOC, LOAD, READONLY, DATA
  3 .ARM.extab    00000000  080018b0  080018b0  0002001c  2**0
                  CONTENTS
  4 .ARM          00000000  080018b0  080018b0  0002001c  2**0
                  CONTENTS
  5 .preinit_array 00000000  080018b0  080018b0  0002001c  2**0
                  CONTENTS, ALLOC, LOAD, DATA
  6 .init_array   00000004  080018b0  080018b0  000118b0  2**2
                  CONTENTS, ALLOC, LOAD, DATA
  7 .fini_array   00000004  080018b4  080018b4  000118b4  2**2
                  CONTENTS, ALLOC, LOAD, DATA
  8 .data         0000001c  20000000  080018b8  00020000  2**2
                  CONTENTS, ALLOC, LOAD, DATA
  9 .bss          00000074  2000001c  080018d4  0002001c  2**2
                  ALLOC
 10 ._user_heap_stack 00000600  20000090  080018d4  00020090  2**0
                  ALLOC
 11 .ARM.attributes 00000029  00000000  00000000  0002001c  2**0
                  CONTENTS, READONLY
 12 .debug_info   0000296b  00000000  00000000  00020045  2**0
                  CONTENTS, READONLY, DEBUGGING, OCTETS
 13 .debug_abbrev 00000cb9  00000000  00000000  000229b0  2**0
                  CONTENTS, READONLY, DEBUGGING, OCTETS
 14 .debug_aranges 000002e8  00000000  00000000  00023670  2**3
                  CONTENTS, READONLY, DEBUGGING, OCTETS
 15 .debug_ranges 00000230  00000000  00000000  00023958  2**3
                  CONTENTS, READONLY, DEBUGGING, OCTETS
 16 .debug_macro  00003be1  00000000  00000000  00023b88  2**0
                  CONTENTS, READONLY, DEBUGGING, OCTETS
 17 .debug_line   00005aa1  00000000  00000000  00027769  2**0
                  CONTENTS, READONLY, DEBUGGING, OCTETS
 18 .debug_str    00009f9f  00000000  00000000  0002d20a  2**0
                  CONTENTS, READONLY, DEBUGGING, OCTETS
 19 .comment      00000050  00000000  00000000  000371a9  2**0
                  CONTENTS, READONLY
 20 .debug_frame  00000878  00000000  00000000  000371fc  2**2
                  CONTENTS, READONLY, DEBUGGING, OCTETS

Disassembly of section .text:

08000130 <__do_global_dtors_aux>:
 8000130:	b510      	push	{r4, lr}
 8000132:	4c05      	ldr	r4, [pc, #20]	; (8000148 <__do_global_dtors_aux+0x18>)
 8000134:	7823      	ldrb	r3, [r4, #0]
 8000136:	b933      	cbnz	r3, 8000146 <__do_global_dtors_aux+0x16>
 8000138:	4b04      	ldr	r3, [pc, #16]	; (800014c <__do_global_dtors_aux+0x1c>)
 800013a:	b113      	cbz	r3, 8000142 <__do_global_dtors_aux+0x12>
 800013c:	4804      	ldr	r0, [pc, #16]	; (8000150 <__do_global_dtors_aux+0x20>)
 800013e:	f3af 8000 	nop.w
 8000142:	2301      	movs	r3, #1
 8000144:	7023      	strb	r3, [r4, #0]
 8000146:	bd10      	pop	{r4, pc}
 8000148:	2000001c 	.word	0x2000001c
 800014c:	00000000 	.word	0x00000000
 8000150:	08001868 	.word	0x08001868

08000154 <frame_dummy>:
 8000154:	b508      	push	{r3, lr}
 8000156:	4b03      	ldr	r3, [pc, #12]	; (8000164 <frame_dummy+0x10>)
 8000158:	b11b      	cbz	r3, 8000162 <frame_dummy+0xe>
 800015a:	4903      	ldr	r1, [pc, #12]	; (8000168 <frame_dummy+0x14>)
 800015c:	4803      	ldr	r0, [pc, #12]	; (800016c <frame_dummy+0x18>)
 800015e:	f3af 8000 	nop.w
 8000162:	bd08      	pop	{r3, pc}
 8000164:	00000000 	.word	0x00000000
 8000168:	20000020 	.word	0x20000020
 800016c:	08001868 	.word	0x08001868

08000170 <SACS_Init>:
uint8_t last_light_state = 0xFF;

void Button_ISR();

void SACS_Init()
{
 8000170:	b580      	push	{r7, lr}
 8000172:	b088      	sub	sp, #32
 8000174:	af00      	add	r7, sp, #0
	/*Initialize the emergency button to work as external interrup.*/
	EXTI_PinConfig_t EmergencyButton =
 8000176:	2300      	movs	r3, #0
 8000178:	733b      	strb	r3, [r7, #12]
 800017a:	2300      	movs	r3, #0
 800017c:	737b      	strb	r3, [r7, #13]
 800017e:	4b0f      	ldr	r3, [pc, #60]	; (80001bc <SACS_Init+0x4c>)
 8000180:	613b      	str	r3, [r7, #16]
 8000182:	2306      	movs	r3, #6
 8000184:	753b      	strb	r3, [r7, #20]
 8000186:	2301      	movs	r3, #1
 8000188:	763b      	strb	r3, [r7, #24]
 800018a:	2301      	movs	r3, #1
 800018c:	767b      	strb	r3, [r7, #25]
 800018e:	4b0c      	ldr	r3, [pc, #48]	; (80001c0 <SACS_Init+0x50>)
 8000190:	61fb      	str	r3, [r7, #28]
		.EXTIx_Enable = EXTIx_ENABLE,
		.P_IRQ_CallBack = Button_ISR,
		.triggerCase = EXTIx_Trigger_FALLING,
	};

	Light_Init(LIGHT_PORTB , LIGHT_PIN5); // Initialize Light
 8000192:	2105      	movs	r1, #5
 8000194:	2001      	movs	r0, #1
 8000196:	f000 fb3f 	bl	8000818 <Light_Init>
	IR_Init(IR_PORTB, IR_PIN11); // IR Initialization for Automatic Control
 800019a:	210b      	movs	r1, #11
 800019c:	2001      	movs	r0, #1
 800019e:	f000 f889 	bl	80002b4 <IR_Init>
	LCD_Init(); // Initialize the LCD
 80001a2:	f000 f8ff 	bl	80003a4 <LCD_Init>
	PC_Display_Init(); // Display status on PC Display
 80001a6:	f000 fbd1 	bl	800094c <PC_Display_Init>
	EXTI_GPIO_Init(&EmergencyButton); // Manual Control button
 80001aa:	f107 030c 	add.w	r3, r7, #12
 80001ae:	4618      	mov	r0, r3
 80001b0:	f000 fbf8 	bl	80009a4 <EXTI_GPIO_Init>
}
 80001b4:	bf00      	nop
 80001b6:	3720      	adds	r7, #32
 80001b8:	46bd      	mov	sp, r7
 80001ba:	bd80      	pop	{r7, pc}
 80001bc:	40010c00 	.word	0x40010c00
 80001c0:	08000281 	.word	0x08000281

080001c4 <SACS_Start>:
void SACS_Start()
{
 80001c4:	b580      	push	{r7, lr}
 80001c6:	af00      	add	r7, sp, #0
	if(Light_Flag != last_light_state) // Send the status of the Light only if it changed
 80001c8:	4b28      	ldr	r3, [pc, #160]	; (800026c <SACS_Start+0xa8>)
 80001ca:	781a      	ldrb	r2, [r3, #0]
 80001cc:	4b28      	ldr	r3, [pc, #160]	; (8000270 <SACS_Start+0xac>)
 80001ce:	781b      	ldrb	r3, [r3, #0]
 80001d0:	429a      	cmp	r2, r3
 80001d2:	d01e      	beq.n	8000212 <SACS_Start+0x4e>
	{
		last_light_state = Light_Flag; // Update the status
 80001d4:	4b25      	ldr	r3, [pc, #148]	; (800026c <SACS_Start+0xa8>)
 80001d6:	781a      	ldrb	r2, [r3, #0]
 80001d8:	4b25      	ldr	r3, [pc, #148]	; (8000270 <SACS_Start+0xac>)
 80001da:	701a      	strb	r2, [r3, #0]
		if(Light_Flag == 1) // Light ON
 80001dc:	4b23      	ldr	r3, [pc, #140]	; (800026c <SACS_Start+0xa8>)
 80001de:	781b      	ldrb	r3, [r3, #0]
 80001e0:	2b01      	cmp	r3, #1
 80001e2:	d109      	bne.n	80001f8 <SACS_Start+0x34>
		{
			LCD_Write_Command(LCD_Clear); /*Clear the LCD*/
 80001e4:	2001      	movs	r0, #1
 80001e6:	f000 f94f 	bl	8000488 <LCD_Write_Command>
			PC_Display_Write("Light: ON ");
 80001ea:	4822      	ldr	r0, [pc, #136]	; (8000274 <SACS_Start+0xb0>)
 80001ec:	f000 fbcc 	bl	8000988 <PC_Display_Write>
			LCD_Write_String("Light: ON ");
 80001f0:	4820      	ldr	r0, [pc, #128]	; (8000274 <SACS_Start+0xb0>)
 80001f2:	f000 faf5 	bl	80007e0 <LCD_Write_String>
 80001f6:	e00c      	b.n	8000212 <SACS_Start+0x4e>
		}
		else if(Light_Flag == 0) // Light OFF
 80001f8:	4b1c      	ldr	r3, [pc, #112]	; (800026c <SACS_Start+0xa8>)
 80001fa:	781b      	ldrb	r3, [r3, #0]
 80001fc:	2b00      	cmp	r3, #0
 80001fe:	d108      	bne.n	8000212 <SACS_Start+0x4e>
		{
			LCD_Write_Command(LCD_Clear); /*Clear the LCD*/
 8000200:	2001      	movs	r0, #1
 8000202:	f000 f941 	bl	8000488 <LCD_Write_Command>
			PC_Display_Write("Light: OFF ");
 8000206:	481c      	ldr	r0, [pc, #112]	; (8000278 <SACS_Start+0xb4>)
 8000208:	f000 fbbe 	bl	8000988 <PC_Display_Write>
			LCD_Write_String("Light: OFF ");
 800020c:	481a      	ldr	r0, [pc, #104]	; (8000278 <SACS_Start+0xb4>)
 800020e:	f000 fae7 	bl	80007e0 <LCD_Write_String>
		}

	}
	IR_s = IR_Read_Status(IR_PORTB, IR_PIN11); // Read if there is someone entered / left the room
 8000212:	210b      	movs	r1, #11
 8000214:	2001      	movs	r0, #1
 8000216:	f000 f883 	bl	8000320 <IR_Read_Status>
 800021a:	4603      	mov	r3, r0
 800021c:	461a      	mov	r2, r3
 800021e:	4b17      	ldr	r3, [pc, #92]	; (800027c <SACS_Start+0xb8>)
 8000220:	701a      	strb	r2, [r3, #0]

	if((IR_s == ACTIVE) && (Light_Flag == 0)) // Someone entered the room or click the activation button
 8000222:	4b16      	ldr	r3, [pc, #88]	; (800027c <SACS_Start+0xb8>)
 8000224:	781b      	ldrb	r3, [r3, #0]
 8000226:	2b01      	cmp	r3, #1
 8000228:	d10b      	bne.n	8000242 <SACS_Start+0x7e>
 800022a:	4b10      	ldr	r3, [pc, #64]	; (800026c <SACS_Start+0xa8>)
 800022c:	781b      	ldrb	r3, [r3, #0]
 800022e:	2b00      	cmp	r3, #0
 8000230:	d107      	bne.n	8000242 <SACS_Start+0x7e>
	{
		Light_On(LIGHT_PORTB, LIGHT_PIN5); // Light on
 8000232:	2105      	movs	r1, #5
 8000234:	2001      	movs	r0, #1
 8000236:	f000 fb25 	bl	8000884 <Light_On>
		Light_Flag = 1; // raise a flag for the light
 800023a:	4b0c      	ldr	r3, [pc, #48]	; (800026c <SACS_Start+0xa8>)
 800023c:	2201      	movs	r2, #1
 800023e:	701a      	strb	r2, [r3, #0]
 8000240:	e00e      	b.n	8000260 <SACS_Start+0x9c>
	}
	else if((IR_s == ACTIVE)  && (Light_Flag == 1)) // Someone left the room or deactivate the manual button
 8000242:	4b0e      	ldr	r3, [pc, #56]	; (800027c <SACS_Start+0xb8>)
 8000244:	781b      	ldrb	r3, [r3, #0]
 8000246:	2b01      	cmp	r3, #1
 8000248:	d10a      	bne.n	8000260 <SACS_Start+0x9c>
 800024a:	4b08      	ldr	r3, [pc, #32]	; (800026c <SACS_Start+0xa8>)
 800024c:	781b      	ldrb	r3, [r3, #0]
 800024e:	2b01      	cmp	r3, #1
 8000250:	d106      	bne.n	8000260 <SACS_Start+0x9c>
	{
		Light_Off(LIGHT_PORTB, LIGHT_PIN5); // light off
 8000252:	2105      	movs	r1, #5
 8000254:	2001      	movs	r0, #1
 8000256:	f000 fb47 	bl	80008e8 <Light_Off>
		Light_Flag = 0; // reset the flag of light
 800025a:	4b04      	ldr	r3, [pc, #16]	; (800026c <SACS_Start+0xa8>)
 800025c:	2200      	movs	r2, #0
 800025e:	701a      	strb	r2, [r3, #0]
	}
	else{}
	delay_ms(150);
 8000260:	2096      	movs	r0, #150	; 0x96
 8000262:	f000 ffba 	bl	80011da <delay_ms>
}
 8000266:	bf00      	nop
 8000268:	bd80      	pop	{r7, pc}
 800026a:	bf00      	nop
 800026c:	20000039 	.word	0x20000039
 8000270:	20000000 	.word	0x20000000
 8000274:	08001880 	.word	0x08001880
 8000278:	0800188c 	.word	0x0800188c
 800027c:	20000038 	.word	0x20000038

08000280 <Button_ISR>:
// ISR Function - For Manual Control
void Button_ISR()
{
 8000280:	b580      	push	{r7, lr}
 8000282:	af00      	add	r7, sp, #0
	if(Light_Flag == 0)
 8000284:	4b0a      	ldr	r3, [pc, #40]	; (80002b0 <Button_ISR+0x30>)
 8000286:	781b      	ldrb	r3, [r3, #0]
 8000288:	2b00      	cmp	r3, #0
 800028a:	d107      	bne.n	800029c <Button_ISR+0x1c>
	{
		Light_On(LIGHT_PORTB, LIGHT_PIN5); // Light on
 800028c:	2105      	movs	r1, #5
 800028e:	2001      	movs	r0, #1
 8000290:	f000 faf8 	bl	8000884 <Light_On>
		Light_Flag = 1; // raise a flag for the light
 8000294:	4b06      	ldr	r3, [pc, #24]	; (80002b0 <Button_ISR+0x30>)
 8000296:	2201      	movs	r2, #1
 8000298:	701a      	strb	r2, [r3, #0]
	else
	{
		Light_Off(LIGHT_PORTB, LIGHT_PIN5); // light off
		Light_Flag = 0; // reset the flag of light
	}
}
 800029a:	e006      	b.n	80002aa <Button_ISR+0x2a>
		Light_Off(LIGHT_PORTB, LIGHT_PIN5); // light off
 800029c:	2105      	movs	r1, #5
 800029e:	2001      	movs	r0, #1
 80002a0:	f000 fb22 	bl	80008e8 <Light_Off>
		Light_Flag = 0; // reset the flag of light
 80002a4:	4b02      	ldr	r3, [pc, #8]	; (80002b0 <Button_ISR+0x30>)
 80002a6:	2200      	movs	r2, #0
 80002a8:	701a      	strb	r2, [r3, #0]
}
 80002aa:	bf00      	nop
 80002ac:	bd80      	pop	{r7, pc}
 80002ae:	bf00      	nop
 80002b0:	20000039 	.word	0x20000039

080002b4 <IR_Init>:
 */

#include "IR.h"

void IR_Init(IR_Port_e IR_Port, IR_Pin_e IR_Pin)
{
 80002b4:	b580      	push	{r7, lr}
 80002b6:	b084      	sub	sp, #16
 80002b8:	af00      	add	r7, sp, #0
 80002ba:	4603      	mov	r3, r0
 80002bc:	460a      	mov	r2, r1
 80002be:	71fb      	strb	r3, [r7, #7]
 80002c0:	4613      	mov	r3, r2
 80002c2:	71bb      	strb	r3, [r7, #6]
	GPIO_Pin_Config pinConfig =
 80002c4:	2300      	movs	r3, #0
 80002c6:	60fb      	str	r3, [r7, #12]
 80002c8:	79bb      	ldrb	r3, [r7, #6]
 80002ca:	b29b      	uxth	r3, r3
 80002cc:	81bb      	strh	r3, [r7, #12]
 80002ce:	2301      	movs	r3, #1
 80002d0:	73bb      	strb	r3, [r7, #14]
	{
		.GPIO_PinNumber = IR_Pin,
		.GPIO_PinMode = GPIO_MODE_INPUT_FLOATING,
	};
	if(IR_Port == IR_PORTA)
 80002d2:	79fb      	ldrb	r3, [r7, #7]
 80002d4:	2b00      	cmp	r3, #0
 80002d6:	d106      	bne.n	80002e6 <IR_Init+0x32>
	{
		MCAL_GPIO_Init(GPIOA , &pinConfig);
 80002d8:	f107 030c 	add.w	r3, r7, #12
 80002dc:	4619      	mov	r1, r3
 80002de:	480d      	ldr	r0, [pc, #52]	; (8000314 <IR_Init+0x60>)
 80002e0:	f000 fe9a 	bl	8001018 <MCAL_GPIO_Init>
	else if(IR_Port == IR_PORTC)
	{
		MCAL_GPIO_Init(GPIOC , &pinConfig);
	}
	else{}
}
 80002e4:	e012      	b.n	800030c <IR_Init+0x58>
	else if(IR_Port == IR_PORTB)
 80002e6:	79fb      	ldrb	r3, [r7, #7]
 80002e8:	2b01      	cmp	r3, #1
 80002ea:	d106      	bne.n	80002fa <IR_Init+0x46>
		MCAL_GPIO_Init(GPIOB , &pinConfig);
 80002ec:	f107 030c 	add.w	r3, r7, #12
 80002f0:	4619      	mov	r1, r3
 80002f2:	4809      	ldr	r0, [pc, #36]	; (8000318 <IR_Init+0x64>)
 80002f4:	f000 fe90 	bl	8001018 <MCAL_GPIO_Init>
}
 80002f8:	e008      	b.n	800030c <IR_Init+0x58>
	else if(IR_Port == IR_PORTC)
 80002fa:	79fb      	ldrb	r3, [r7, #7]
 80002fc:	2b02      	cmp	r3, #2
 80002fe:	d105      	bne.n	800030c <IR_Init+0x58>
		MCAL_GPIO_Init(GPIOC , &pinConfig);
 8000300:	f107 030c 	add.w	r3, r7, #12
 8000304:	4619      	mov	r1, r3
 8000306:	4805      	ldr	r0, [pc, #20]	; (800031c <IR_Init+0x68>)
 8000308:	f000 fe86 	bl	8001018 <MCAL_GPIO_Init>
}
 800030c:	bf00      	nop
 800030e:	3710      	adds	r7, #16
 8000310:	46bd      	mov	sp, r7
 8000312:	bd80      	pop	{r7, pc}
 8000314:	40010800 	.word	0x40010800
 8000318:	40010c00 	.word	0x40010c00
 800031c:	40011000 	.word	0x40011000

08000320 <IR_Read_Status>:
IR_Status_e IR_Read_Status(IR_Port_e IR_Port, IR_Pin_e IR_Pin)
{
 8000320:	b580      	push	{r7, lr}
 8000322:	b082      	sub	sp, #8
 8000324:	af00      	add	r7, sp, #0
 8000326:	4603      	mov	r3, r0
 8000328:	460a      	mov	r2, r1
 800032a:	71fb      	strb	r3, [r7, #7]
 800032c:	4613      	mov	r3, r2
 800032e:	71bb      	strb	r3, [r7, #6]
	if(IR_Port == IR_PORTA)
 8000330:	79fb      	ldrb	r3, [r7, #7]
 8000332:	2b00      	cmp	r3, #0
 8000334:	d10c      	bne.n	8000350 <IR_Read_Status+0x30>
	{
		return MCAL_GPIO_ReadPin(GPIOA , IR_Pin) ? NOT_ACTIVE : ACTIVE;
 8000336:	79bb      	ldrb	r3, [r7, #6]
 8000338:	b29b      	uxth	r3, r3
 800033a:	4619      	mov	r1, r3
 800033c:	4816      	ldr	r0, [pc, #88]	; (8000398 <IR_Read_Status+0x78>)
 800033e:	f000 ff13 	bl	8001168 <MCAL_GPIO_ReadPin>
 8000342:	4603      	mov	r3, r0
 8000344:	2b00      	cmp	r3, #0
 8000346:	bf0c      	ite	eq
 8000348:	2301      	moveq	r3, #1
 800034a:	2300      	movne	r3, #0
 800034c:	b2db      	uxtb	r3, r3
 800034e:	e01f      	b.n	8000390 <IR_Read_Status+0x70>
	}
	else if(IR_Port == IR_PORTB)
 8000350:	79fb      	ldrb	r3, [r7, #7]
 8000352:	2b01      	cmp	r3, #1
 8000354:	d10c      	bne.n	8000370 <IR_Read_Status+0x50>
	{
		return MCAL_GPIO_ReadPin(GPIOB , IR_Pin) ? NOT_ACTIVE : ACTIVE;
 8000356:	79bb      	ldrb	r3, [r7, #6]
 8000358:	b29b      	uxth	r3, r3
 800035a:	4619      	mov	r1, r3
 800035c:	480f      	ldr	r0, [pc, #60]	; (800039c <IR_Read_Status+0x7c>)
 800035e:	f000 ff03 	bl	8001168 <MCAL_GPIO_ReadPin>
 8000362:	4603      	mov	r3, r0
 8000364:	2b00      	cmp	r3, #0
 8000366:	bf0c      	ite	eq
 8000368:	2301      	moveq	r3, #1
 800036a:	2300      	movne	r3, #0
 800036c:	b2db      	uxtb	r3, r3
 800036e:	e00f      	b.n	8000390 <IR_Read_Status+0x70>
	}
	else if(IR_Port == IR_PORTC)
 8000370:	79fb      	ldrb	r3, [r7, #7]
 8000372:	2b02      	cmp	r3, #2
 8000374:	d10c      	bne.n	8000390 <IR_Read_Status+0x70>
	{
		return MCAL_GPIO_ReadPin(GPIOC , IR_Pin) ? NOT_ACTIVE : ACTIVE;
 8000376:	79bb      	ldrb	r3, [r7, #6]
 8000378:	b29b      	uxth	r3, r3
 800037a:	4619      	mov	r1, r3
 800037c:	4808      	ldr	r0, [pc, #32]	; (80003a0 <IR_Read_Status+0x80>)
 800037e:	f000 fef3 	bl	8001168 <MCAL_GPIO_ReadPin>
 8000382:	4603      	mov	r3, r0
 8000384:	2b00      	cmp	r3, #0
 8000386:	bf0c      	ite	eq
 8000388:	2301      	moveq	r3, #1
 800038a:	2300      	movne	r3, #0
 800038c:	b2db      	uxtb	r3, r3
 800038e:	e7ff      	b.n	8000390 <IR_Read_Status+0x70>
	}
	else{}
}
 8000390:	4618      	mov	r0, r3
 8000392:	3708      	adds	r7, #8
 8000394:	46bd      	mov	sp, r7
 8000396:	bd80      	pop	{r7, pc}
 8000398:	40010800 	.word	0x40010800
 800039c:	40010c00 	.word	0x40010c00
 80003a0:	40011000 	.word	0x40011000

080003a4 <LCD_Init>:
#include "stdio.h"

#include "LCD.h"

void LCD_Init(void)
{
 80003a4:	b580      	push	{r7, lr}
 80003a6:	b086      	sub	sp, #24
 80003a8:	af00      	add	r7, sp, #0

	GPIO_Pin_Config D7 = {GPIOx_PIN_12 , GPIO_MODE_OUTPUT_PP, GPIO_SPEED_10MHZ};
 80003aa:	4b2f      	ldr	r3, [pc, #188]	; (8000468 <LCD_Init+0xc4>)
 80003ac:	681b      	ldr	r3, [r3, #0]
 80003ae:	617b      	str	r3, [r7, #20]
	GPIO_Pin_Config D6 = {GPIOx_PIN_13 , GPIO_MODE_OUTPUT_PP, GPIO_SPEED_10MHZ};
 80003b0:	4b2e      	ldr	r3, [pc, #184]	; (800046c <LCD_Init+0xc8>)
 80003b2:	681b      	ldr	r3, [r3, #0]
 80003b4:	613b      	str	r3, [r7, #16]
	GPIO_Pin_Config D5 = {GPIOx_PIN_14 , GPIO_MODE_OUTPUT_PP, GPIO_SPEED_10MHZ};
 80003b6:	4b2e      	ldr	r3, [pc, #184]	; (8000470 <LCD_Init+0xcc>)
 80003b8:	681b      	ldr	r3, [r3, #0]
 80003ba:	60fb      	str	r3, [r7, #12]
	GPIO_Pin_Config D4 = {GPIOx_PIN_15 , GPIO_MODE_OUTPUT_PP, GPIO_SPEED_10MHZ};
 80003bc:	4b2d      	ldr	r3, [pc, #180]	; (8000474 <LCD_Init+0xd0>)
 80003be:	681b      	ldr	r3, [r3, #0]
 80003c0:	60bb      	str	r3, [r7, #8]
	GPIO_Pin_Config RS = {GPIOx_PIN_11 , GPIO_MODE_OUTPUT_PP, GPIO_SPEED_10MHZ};
 80003c2:	4b2d      	ldr	r3, [pc, #180]	; (8000478 <LCD_Init+0xd4>)
 80003c4:	681b      	ldr	r3, [r3, #0]
 80003c6:	607b      	str	r3, [r7, #4]
	GPIO_Pin_Config EN = {GPIOx_PIN_8  , GPIO_MODE_OUTPUT_PP, GPIO_SPEED_10MHZ};
 80003c8:	4b2c      	ldr	r3, [pc, #176]	; (800047c <LCD_Init+0xd8>)
 80003ca:	681b      	ldr	r3, [r3, #0]
 80003cc:	603b      	str	r3, [r7, #0]

	MCAL_GPIO_Init(GPIOB , &D7);
 80003ce:	f107 0314 	add.w	r3, r7, #20
 80003d2:	4619      	mov	r1, r3
 80003d4:	482a      	ldr	r0, [pc, #168]	; (8000480 <LCD_Init+0xdc>)
 80003d6:	f000 fe1f 	bl	8001018 <MCAL_GPIO_Init>
	MCAL_GPIO_Init(GPIOB , &D6);
 80003da:	f107 0310 	add.w	r3, r7, #16
 80003de:	4619      	mov	r1, r3
 80003e0:	4827      	ldr	r0, [pc, #156]	; (8000480 <LCD_Init+0xdc>)
 80003e2:	f000 fe19 	bl	8001018 <MCAL_GPIO_Init>
	MCAL_GPIO_Init(GPIOB , &D5);
 80003e6:	f107 030c 	add.w	r3, r7, #12
 80003ea:	4619      	mov	r1, r3
 80003ec:	4824      	ldr	r0, [pc, #144]	; (8000480 <LCD_Init+0xdc>)
 80003ee:	f000 fe13 	bl	8001018 <MCAL_GPIO_Init>
	MCAL_GPIO_Init(GPIOB , &D4);
 80003f2:	f107 0308 	add.w	r3, r7, #8
 80003f6:	4619      	mov	r1, r3
 80003f8:	4821      	ldr	r0, [pc, #132]	; (8000480 <LCD_Init+0xdc>)
 80003fa:	f000 fe0d 	bl	8001018 <MCAL_GPIO_Init>
	MCAL_GPIO_Init(GPIOA , &RS);
 80003fe:	1d3b      	adds	r3, r7, #4
 8000400:	4619      	mov	r1, r3
 8000402:	4820      	ldr	r0, [pc, #128]	; (8000484 <LCD_Init+0xe0>)
 8000404:	f000 fe08 	bl	8001018 <MCAL_GPIO_Init>
	MCAL_GPIO_Init(GPIOA , &EN);
 8000408:	463b      	mov	r3, r7
 800040a:	4619      	mov	r1, r3
 800040c:	481d      	ldr	r0, [pc, #116]	; (8000484 <LCD_Init+0xe0>)
 800040e:	f000 fe03 	bl	8001018 <MCAL_GPIO_Init>


	LCD_Write_Command(0x3);
 8000412:	2003      	movs	r0, #3
 8000414:	f000 f838 	bl	8000488 <LCD_Write_Command>
	delay_ms(4);
 8000418:	2004      	movs	r0, #4
 800041a:	f000 fede 	bl	80011da <delay_ms>
	LCD_Write_Command(0x3);
 800041e:	2003      	movs	r0, #3
 8000420:	f000 f832 	bl	8000488 <LCD_Write_Command>
	delay_ms(4);
 8000424:	2004      	movs	r0, #4
 8000426:	f000 fed8 	bl	80011da <delay_ms>
	LCD_Write_Command(0x3);
 800042a:	2003      	movs	r0, #3
 800042c:	f000 f82c 	bl	8000488 <LCD_Write_Command>
	delay_ms(4);
 8000430:	2004      	movs	r0, #4
 8000432:	f000 fed2 	bl	80011da <delay_ms>
	LCD_Write_Command(MOOD4);
 8000436:	2002      	movs	r0, #2
 8000438:	f000 f826 	bl	8000488 <LCD_Write_Command>
	LCD_Write_Command(LCD_4BIT_2LINE);
 800043c:	2028      	movs	r0, #40	; 0x28
 800043e:	f000 f823 	bl	8000488 <LCD_Write_Command>
	LCD_Write_Command(DISPLAY_OFF_CURSER_OFF);
 8000442:	2008      	movs	r0, #8
 8000444:	f000 f820 	bl	8000488 <LCD_Write_Command>
	LCD_Write_Command(LCD_Clear);
 8000448:	2001      	movs	r0, #1
 800044a:	f000 f81d 	bl	8000488 <LCD_Write_Command>
	LCD_Write_Command(LCD_CURSER_INC_RIGHT);
 800044e:	2006      	movs	r0, #6
 8000450:	f000 f81a 	bl	8000488 <LCD_Write_Command>
	LCD_Write_Command(LCD_Clear);
 8000454:	2001      	movs	r0, #1
 8000456:	f000 f817 	bl	8000488 <LCD_Write_Command>
	LCD_Write_Command(LCD_TurnOnDisplay);
 800045a:	200c      	movs	r0, #12
 800045c:	f000 f814 	bl	8000488 <LCD_Write_Command>
}
 8000460:	bf00      	nop
 8000462:	3718      	adds	r7, #24
 8000464:	46bd      	mov	sp, r7
 8000466:	bd80      	pop	{r7, pc}
 8000468:	08001898 	.word	0x08001898
 800046c:	0800189c 	.word	0x0800189c
 8000470:	080018a0 	.word	0x080018a0
 8000474:	080018a4 	.word	0x080018a4
 8000478:	080018a8 	.word	0x080018a8
 800047c:	080018ac 	.word	0x080018ac
 8000480:	40010c00 	.word	0x40010c00
 8000484:	40010800 	.word	0x40010800

08000488 <LCD_Write_Command>:
void LCD_Write_Command(uint8_t cmd)
{
 8000488:	b580      	push	{r7, lr}
 800048a:	b082      	sub	sp, #8
 800048c:	af00      	add	r7, sp, #0
 800048e:	4603      	mov	r3, r0
 8000490:	71fb      	strb	r3, [r7, #7]
     RS(0);/*Select Command register.*/
 8000492:	4b66      	ldr	r3, [pc, #408]	; (800062c <LCD_Write_Command+0x1a4>)
 8000494:	68db      	ldr	r3, [r3, #12]
 8000496:	4a65      	ldr	r2, [pc, #404]	; (800062c <LCD_Write_Command+0x1a4>)
 8000498:	f423 6300 	bic.w	r3, r3, #2048	; 0x800
 800049c:	60d3      	str	r3, [r2, #12]
	 D7(GET_BIT(cmd,7)); 
 800049e:	79fb      	ldrb	r3, [r7, #7]
 80004a0:	09db      	lsrs	r3, r3, #7
 80004a2:	b2db      	uxtb	r3, r3
 80004a4:	f003 0301 	and.w	r3, r3, #1
 80004a8:	2b00      	cmp	r3, #0
 80004aa:	d106      	bne.n	80004ba <LCD_Write_Command+0x32>
 80004ac:	4b60      	ldr	r3, [pc, #384]	; (8000630 <LCD_Write_Command+0x1a8>)
 80004ae:	68db      	ldr	r3, [r3, #12]
 80004b0:	4a5f      	ldr	r2, [pc, #380]	; (8000630 <LCD_Write_Command+0x1a8>)
 80004b2:	f423 5380 	bic.w	r3, r3, #4096	; 0x1000
 80004b6:	60d3      	str	r3, [r2, #12]
 80004b8:	e005      	b.n	80004c6 <LCD_Write_Command+0x3e>
 80004ba:	4b5d      	ldr	r3, [pc, #372]	; (8000630 <LCD_Write_Command+0x1a8>)
 80004bc:	68db      	ldr	r3, [r3, #12]
 80004be:	4a5c      	ldr	r2, [pc, #368]	; (8000630 <LCD_Write_Command+0x1a8>)
 80004c0:	f443 5380 	orr.w	r3, r3, #4096	; 0x1000
 80004c4:	60d3      	str	r3, [r2, #12]
	 D6(GET_BIT(cmd,6));    /*Send the most four bit to data pins.*/
 80004c6:	79fb      	ldrb	r3, [r7, #7]
 80004c8:	099b      	lsrs	r3, r3, #6
 80004ca:	b2db      	uxtb	r3, r3
 80004cc:	f003 0301 	and.w	r3, r3, #1
 80004d0:	2b00      	cmp	r3, #0
 80004d2:	d106      	bne.n	80004e2 <LCD_Write_Command+0x5a>
 80004d4:	4b56      	ldr	r3, [pc, #344]	; (8000630 <LCD_Write_Command+0x1a8>)
 80004d6:	68db      	ldr	r3, [r3, #12]
 80004d8:	4a55      	ldr	r2, [pc, #340]	; (8000630 <LCD_Write_Command+0x1a8>)
 80004da:	f423 5300 	bic.w	r3, r3, #8192	; 0x2000
 80004de:	60d3      	str	r3, [r2, #12]
 80004e0:	e005      	b.n	80004ee <LCD_Write_Command+0x66>
 80004e2:	4b53      	ldr	r3, [pc, #332]	; (8000630 <LCD_Write_Command+0x1a8>)
 80004e4:	68db      	ldr	r3, [r3, #12]
 80004e6:	4a52      	ldr	r2, [pc, #328]	; (8000630 <LCD_Write_Command+0x1a8>)
 80004e8:	f443 5300 	orr.w	r3, r3, #8192	; 0x2000
 80004ec:	60d3      	str	r3, [r2, #12]
	 D5(GET_BIT(cmd,5));
 80004ee:	79fb      	ldrb	r3, [r7, #7]
 80004f0:	095b      	lsrs	r3, r3, #5
 80004f2:	b2db      	uxtb	r3, r3
 80004f4:	f003 0301 	and.w	r3, r3, #1
 80004f8:	2b00      	cmp	r3, #0
 80004fa:	d106      	bne.n	800050a <LCD_Write_Command+0x82>
 80004fc:	4b4c      	ldr	r3, [pc, #304]	; (8000630 <LCD_Write_Command+0x1a8>)
 80004fe:	68db      	ldr	r3, [r3, #12]
 8000500:	4a4b      	ldr	r2, [pc, #300]	; (8000630 <LCD_Write_Command+0x1a8>)
 8000502:	f423 4380 	bic.w	r3, r3, #16384	; 0x4000
 8000506:	60d3      	str	r3, [r2, #12]
 8000508:	e005      	b.n	8000516 <LCD_Write_Command+0x8e>
 800050a:	4b49      	ldr	r3, [pc, #292]	; (8000630 <LCD_Write_Command+0x1a8>)
 800050c:	68db      	ldr	r3, [r3, #12]
 800050e:	4a48      	ldr	r2, [pc, #288]	; (8000630 <LCD_Write_Command+0x1a8>)
 8000510:	f443 4380 	orr.w	r3, r3, #16384	; 0x4000
 8000514:	60d3      	str	r3, [r2, #12]
	 D4(GET_BIT(cmd,4)); 
 8000516:	79fb      	ldrb	r3, [r7, #7]
 8000518:	091b      	lsrs	r3, r3, #4
 800051a:	b2db      	uxtb	r3, r3
 800051c:	f003 0301 	and.w	r3, r3, #1
 8000520:	2b00      	cmp	r3, #0
 8000522:	d106      	bne.n	8000532 <LCD_Write_Command+0xaa>
 8000524:	4b42      	ldr	r3, [pc, #264]	; (8000630 <LCD_Write_Command+0x1a8>)
 8000526:	68db      	ldr	r3, [r3, #12]
 8000528:	4a41      	ldr	r2, [pc, #260]	; (8000630 <LCD_Write_Command+0x1a8>)
 800052a:	f423 4300 	bic.w	r3, r3, #32768	; 0x8000
 800052e:	60d3      	str	r3, [r2, #12]
 8000530:	e005      	b.n	800053e <LCD_Write_Command+0xb6>
 8000532:	4b3f      	ldr	r3, [pc, #252]	; (8000630 <LCD_Write_Command+0x1a8>)
 8000534:	68db      	ldr	r3, [r3, #12]
 8000536:	4a3e      	ldr	r2, [pc, #248]	; (8000630 <LCD_Write_Command+0x1a8>)
 8000538:	f443 4300 	orr.w	r3, r3, #32768	; 0x8000
 800053c:	60d3      	str	r3, [r2, #12]
	 TRIGGER_LCD(); /*Enable EN for 1 ms then disable it for 1ms.*/
 800053e:	4b3b      	ldr	r3, [pc, #236]	; (800062c <LCD_Write_Command+0x1a4>)
 8000540:	68db      	ldr	r3, [r3, #12]
 8000542:	4a3a      	ldr	r2, [pc, #232]	; (800062c <LCD_Write_Command+0x1a4>)
 8000544:	f443 7380 	orr.w	r3, r3, #256	; 0x100
 8000548:	60d3      	str	r3, [r2, #12]
 800054a:	2001      	movs	r0, #1
 800054c:	f000 fe45 	bl	80011da <delay_ms>
 8000550:	4b36      	ldr	r3, [pc, #216]	; (800062c <LCD_Write_Command+0x1a4>)
 8000552:	68db      	ldr	r3, [r3, #12]
 8000554:	4a35      	ldr	r2, [pc, #212]	; (800062c <LCD_Write_Command+0x1a4>)
 8000556:	f423 7380 	bic.w	r3, r3, #256	; 0x100
 800055a:	60d3      	str	r3, [r2, #12]
 800055c:	2001      	movs	r0, #1
 800055e:	f000 fe3c 	bl	80011da <delay_ms>
	 D7(GET_BIT(cmd,3));
 8000562:	79fb      	ldrb	r3, [r7, #7]
 8000564:	08db      	lsrs	r3, r3, #3
 8000566:	b2db      	uxtb	r3, r3
 8000568:	f003 0301 	and.w	r3, r3, #1
 800056c:	2b00      	cmp	r3, #0
 800056e:	d106      	bne.n	800057e <LCD_Write_Command+0xf6>
 8000570:	4b2f      	ldr	r3, [pc, #188]	; (8000630 <LCD_Write_Command+0x1a8>)
 8000572:	68db      	ldr	r3, [r3, #12]
 8000574:	4a2e      	ldr	r2, [pc, #184]	; (8000630 <LCD_Write_Command+0x1a8>)
 8000576:	f423 5380 	bic.w	r3, r3, #4096	; 0x1000
 800057a:	60d3      	str	r3, [r2, #12]
 800057c:	e005      	b.n	800058a <LCD_Write_Command+0x102>
 800057e:	4b2c      	ldr	r3, [pc, #176]	; (8000630 <LCD_Write_Command+0x1a8>)
 8000580:	68db      	ldr	r3, [r3, #12]
 8000582:	4a2b      	ldr	r2, [pc, #172]	; (8000630 <LCD_Write_Command+0x1a8>)
 8000584:	f443 5380 	orr.w	r3, r3, #4096	; 0x1000
 8000588:	60d3      	str	r3, [r2, #12]
	 D6(GET_BIT(cmd,2));   /*Send the least four bit to data pins.*/
 800058a:	79fb      	ldrb	r3, [r7, #7]
 800058c:	089b      	lsrs	r3, r3, #2
 800058e:	b2db      	uxtb	r3, r3
 8000590:	f003 0301 	and.w	r3, r3, #1
 8000594:	2b00      	cmp	r3, #0
 8000596:	d106      	bne.n	80005a6 <LCD_Write_Command+0x11e>
 8000598:	4b25      	ldr	r3, [pc, #148]	; (8000630 <LCD_Write_Command+0x1a8>)
 800059a:	68db      	ldr	r3, [r3, #12]
 800059c:	4a24      	ldr	r2, [pc, #144]	; (8000630 <LCD_Write_Command+0x1a8>)
 800059e:	f423 5300 	bic.w	r3, r3, #8192	; 0x2000
 80005a2:	60d3      	str	r3, [r2, #12]
 80005a4:	e005      	b.n	80005b2 <LCD_Write_Command+0x12a>
 80005a6:	4b22      	ldr	r3, [pc, #136]	; (8000630 <LCD_Write_Command+0x1a8>)
 80005a8:	68db      	ldr	r3, [r3, #12]
 80005aa:	4a21      	ldr	r2, [pc, #132]	; (8000630 <LCD_Write_Command+0x1a8>)
 80005ac:	f443 5300 	orr.w	r3, r3, #8192	; 0x2000
 80005b0:	60d3      	str	r3, [r2, #12]
	 D5(GET_BIT(cmd,1));
 80005b2:	79fb      	ldrb	r3, [r7, #7]
 80005b4:	085b      	lsrs	r3, r3, #1
 80005b6:	b2db      	uxtb	r3, r3
 80005b8:	f003 0301 	and.w	r3, r3, #1
 80005bc:	2b00      	cmp	r3, #0
 80005be:	d106      	bne.n	80005ce <LCD_Write_Command+0x146>
 80005c0:	4b1b      	ldr	r3, [pc, #108]	; (8000630 <LCD_Write_Command+0x1a8>)
 80005c2:	68db      	ldr	r3, [r3, #12]
 80005c4:	4a1a      	ldr	r2, [pc, #104]	; (8000630 <LCD_Write_Command+0x1a8>)
 80005c6:	f423 4380 	bic.w	r3, r3, #16384	; 0x4000
 80005ca:	60d3      	str	r3, [r2, #12]
 80005cc:	e005      	b.n	80005da <LCD_Write_Command+0x152>
 80005ce:	4b18      	ldr	r3, [pc, #96]	; (8000630 <LCD_Write_Command+0x1a8>)
 80005d0:	68db      	ldr	r3, [r3, #12]
 80005d2:	4a17      	ldr	r2, [pc, #92]	; (8000630 <LCD_Write_Command+0x1a8>)
 80005d4:	f443 4380 	orr.w	r3, r3, #16384	; 0x4000
 80005d8:	60d3      	str	r3, [r2, #12]
	 D4(GET_BIT(cmd,0));
 80005da:	79fb      	ldrb	r3, [r7, #7]
 80005dc:	f003 0301 	and.w	r3, r3, #1
 80005e0:	2b00      	cmp	r3, #0
 80005e2:	d106      	bne.n	80005f2 <LCD_Write_Command+0x16a>
 80005e4:	4b12      	ldr	r3, [pc, #72]	; (8000630 <LCD_Write_Command+0x1a8>)
 80005e6:	68db      	ldr	r3, [r3, #12]
 80005e8:	4a11      	ldr	r2, [pc, #68]	; (8000630 <LCD_Write_Command+0x1a8>)
 80005ea:	f423 4300 	bic.w	r3, r3, #32768	; 0x8000
 80005ee:	60d3      	str	r3, [r2, #12]
 80005f0:	e005      	b.n	80005fe <LCD_Write_Command+0x176>
 80005f2:	4b0f      	ldr	r3, [pc, #60]	; (8000630 <LCD_Write_Command+0x1a8>)
 80005f4:	68db      	ldr	r3, [r3, #12]
 80005f6:	4a0e      	ldr	r2, [pc, #56]	; (8000630 <LCD_Write_Command+0x1a8>)
 80005f8:	f443 4300 	orr.w	r3, r3, #32768	; 0x8000
 80005fc:	60d3      	str	r3, [r2, #12]
     TRIGGER_LCD(); /*Enable EN for 1 ms then disable it for 1ms.*/
 80005fe:	4b0b      	ldr	r3, [pc, #44]	; (800062c <LCD_Write_Command+0x1a4>)
 8000600:	68db      	ldr	r3, [r3, #12]
 8000602:	4a0a      	ldr	r2, [pc, #40]	; (800062c <LCD_Write_Command+0x1a4>)
 8000604:	f443 7380 	orr.w	r3, r3, #256	; 0x100
 8000608:	60d3      	str	r3, [r2, #12]
 800060a:	2001      	movs	r0, #1
 800060c:	f000 fde5 	bl	80011da <delay_ms>
 8000610:	4b06      	ldr	r3, [pc, #24]	; (800062c <LCD_Write_Command+0x1a4>)
 8000612:	68db      	ldr	r3, [r3, #12]
 8000614:	4a05      	ldr	r2, [pc, #20]	; (800062c <LCD_Write_Command+0x1a4>)
 8000616:	f423 7380 	bic.w	r3, r3, #256	; 0x100
 800061a:	60d3      	str	r3, [r2, #12]
 800061c:	2001      	movs	r0, #1
 800061e:	f000 fddc 	bl	80011da <delay_ms>
}
 8000622:	bf00      	nop
 8000624:	3708      	adds	r7, #8
 8000626:	46bd      	mov	sp, r7
 8000628:	bd80      	pop	{r7, pc}
 800062a:	bf00      	nop
 800062c:	40010800 	.word	0x40010800
 8000630:	40010c00 	.word	0x40010c00

08000634 <LCD_Write_Char>:
void LCD_Write_Char(uint8_t data)
{
 8000634:	b580      	push	{r7, lr}
 8000636:	b082      	sub	sp, #8
 8000638:	af00      	add	r7, sp, #0
 800063a:	4603      	mov	r3, r0
 800063c:	71fb      	strb	r3, [r7, #7]
	RS(1);
 800063e:	4b66      	ldr	r3, [pc, #408]	; (80007d8 <LCD_Write_Char+0x1a4>)
 8000640:	68db      	ldr	r3, [r3, #12]
 8000642:	4a65      	ldr	r2, [pc, #404]	; (80007d8 <LCD_Write_Char+0x1a4>)
 8000644:	f443 6300 	orr.w	r3, r3, #2048	; 0x800
 8000648:	60d3      	str	r3, [r2, #12]
	D7(GET_BIT(data,7));
 800064a:	79fb      	ldrb	r3, [r7, #7]
 800064c:	09db      	lsrs	r3, r3, #7
 800064e:	b2db      	uxtb	r3, r3
 8000650:	f003 0301 	and.w	r3, r3, #1
 8000654:	2b00      	cmp	r3, #0
 8000656:	d106      	bne.n	8000666 <LCD_Write_Char+0x32>
 8000658:	4b60      	ldr	r3, [pc, #384]	; (80007dc <LCD_Write_Char+0x1a8>)
 800065a:	68db      	ldr	r3, [r3, #12]
 800065c:	4a5f      	ldr	r2, [pc, #380]	; (80007dc <LCD_Write_Char+0x1a8>)
 800065e:	f423 5380 	bic.w	r3, r3, #4096	; 0x1000
 8000662:	60d3      	str	r3, [r2, #12]
 8000664:	e005      	b.n	8000672 <LCD_Write_Char+0x3e>
 8000666:	4b5d      	ldr	r3, [pc, #372]	; (80007dc <LCD_Write_Char+0x1a8>)
 8000668:	68db      	ldr	r3, [r3, #12]
 800066a:	4a5c      	ldr	r2, [pc, #368]	; (80007dc <LCD_Write_Char+0x1a8>)
 800066c:	f443 5380 	orr.w	r3, r3, #4096	; 0x1000
 8000670:	60d3      	str	r3, [r2, #12]
	D6(GET_BIT(data,6));    /*Send the most four bit to data pins.*/
 8000672:	79fb      	ldrb	r3, [r7, #7]
 8000674:	099b      	lsrs	r3, r3, #6
 8000676:	b2db      	uxtb	r3, r3
 8000678:	f003 0301 	and.w	r3, r3, #1
 800067c:	2b00      	cmp	r3, #0
 800067e:	d106      	bne.n	800068e <LCD_Write_Char+0x5a>
 8000680:	4b56      	ldr	r3, [pc, #344]	; (80007dc <LCD_Write_Char+0x1a8>)
 8000682:	68db      	ldr	r3, [r3, #12]
 8000684:	4a55      	ldr	r2, [pc, #340]	; (80007dc <LCD_Write_Char+0x1a8>)
 8000686:	f423 5300 	bic.w	r3, r3, #8192	; 0x2000
 800068a:	60d3      	str	r3, [r2, #12]
 800068c:	e005      	b.n	800069a <LCD_Write_Char+0x66>
 800068e:	4b53      	ldr	r3, [pc, #332]	; (80007dc <LCD_Write_Char+0x1a8>)
 8000690:	68db      	ldr	r3, [r3, #12]
 8000692:	4a52      	ldr	r2, [pc, #328]	; (80007dc <LCD_Write_Char+0x1a8>)
 8000694:	f443 5300 	orr.w	r3, r3, #8192	; 0x2000
 8000698:	60d3      	str	r3, [r2, #12]
	D5(GET_BIT(data,5));
 800069a:	79fb      	ldrb	r3, [r7, #7]
 800069c:	095b      	lsrs	r3, r3, #5
 800069e:	b2db      	uxtb	r3, r3
 80006a0:	f003 0301 	and.w	r3, r3, #1
 80006a4:	2b00      	cmp	r3, #0
 80006a6:	d106      	bne.n	80006b6 <LCD_Write_Char+0x82>
 80006a8:	4b4c      	ldr	r3, [pc, #304]	; (80007dc <LCD_Write_Char+0x1a8>)
 80006aa:	68db      	ldr	r3, [r3, #12]
 80006ac:	4a4b      	ldr	r2, [pc, #300]	; (80007dc <LCD_Write_Char+0x1a8>)
 80006ae:	f423 4380 	bic.w	r3, r3, #16384	; 0x4000
 80006b2:	60d3      	str	r3, [r2, #12]
 80006b4:	e005      	b.n	80006c2 <LCD_Write_Char+0x8e>
 80006b6:	4b49      	ldr	r3, [pc, #292]	; (80007dc <LCD_Write_Char+0x1a8>)
 80006b8:	68db      	ldr	r3, [r3, #12]
 80006ba:	4a48      	ldr	r2, [pc, #288]	; (80007dc <LCD_Write_Char+0x1a8>)
 80006bc:	f443 4380 	orr.w	r3, r3, #16384	; 0x4000
 80006c0:	60d3      	str	r3, [r2, #12]
	D4(GET_BIT(data,4));
 80006c2:	79fb      	ldrb	r3, [r7, #7]
 80006c4:	091b      	lsrs	r3, r3, #4
 80006c6:	b2db      	uxtb	r3, r3
 80006c8:	f003 0301 	and.w	r3, r3, #1
 80006cc:	2b00      	cmp	r3, #0
 80006ce:	d106      	bne.n	80006de <LCD_Write_Char+0xaa>
 80006d0:	4b42      	ldr	r3, [pc, #264]	; (80007dc <LCD_Write_Char+0x1a8>)
 80006d2:	68db      	ldr	r3, [r3, #12]
 80006d4:	4a41      	ldr	r2, [pc, #260]	; (80007dc <LCD_Write_Char+0x1a8>)
 80006d6:	f423 4300 	bic.w	r3, r3, #32768	; 0x8000
 80006da:	60d3      	str	r3, [r2, #12]
 80006dc:	e005      	b.n	80006ea <LCD_Write_Char+0xb6>
 80006de:	4b3f      	ldr	r3, [pc, #252]	; (80007dc <LCD_Write_Char+0x1a8>)
 80006e0:	68db      	ldr	r3, [r3, #12]
 80006e2:	4a3e      	ldr	r2, [pc, #248]	; (80007dc <LCD_Write_Char+0x1a8>)
 80006e4:	f443 4300 	orr.w	r3, r3, #32768	; 0x8000
 80006e8:	60d3      	str	r3, [r2, #12]
	TRIGGER_LCD(); /*Enable EN for 1 ms then disable it for 1ms.*/
 80006ea:	4b3b      	ldr	r3, [pc, #236]	; (80007d8 <LCD_Write_Char+0x1a4>)
 80006ec:	68db      	ldr	r3, [r3, #12]
 80006ee:	4a3a      	ldr	r2, [pc, #232]	; (80007d8 <LCD_Write_Char+0x1a4>)
 80006f0:	f443 7380 	orr.w	r3, r3, #256	; 0x100
 80006f4:	60d3      	str	r3, [r2, #12]
 80006f6:	2001      	movs	r0, #1
 80006f8:	f000 fd6f 	bl	80011da <delay_ms>
 80006fc:	4b36      	ldr	r3, [pc, #216]	; (80007d8 <LCD_Write_Char+0x1a4>)
 80006fe:	68db      	ldr	r3, [r3, #12]
 8000700:	4a35      	ldr	r2, [pc, #212]	; (80007d8 <LCD_Write_Char+0x1a4>)
 8000702:	f423 7380 	bic.w	r3, r3, #256	; 0x100
 8000706:	60d3      	str	r3, [r2, #12]
 8000708:	2001      	movs	r0, #1
 800070a:	f000 fd66 	bl	80011da <delay_ms>
	D7(GET_BIT(data,3));
 800070e:	79fb      	ldrb	r3, [r7, #7]
 8000710:	08db      	lsrs	r3, r3, #3
 8000712:	b2db      	uxtb	r3, r3
 8000714:	f003 0301 	and.w	r3, r3, #1
 8000718:	2b00      	cmp	r3, #0
 800071a:	d106      	bne.n	800072a <LCD_Write_Char+0xf6>
 800071c:	4b2f      	ldr	r3, [pc, #188]	; (80007dc <LCD_Write_Char+0x1a8>)
 800071e:	68db      	ldr	r3, [r3, #12]
 8000720:	4a2e      	ldr	r2, [pc, #184]	; (80007dc <LCD_Write_Char+0x1a8>)
 8000722:	f423 5380 	bic.w	r3, r3, #4096	; 0x1000
 8000726:	60d3      	str	r3, [r2, #12]
 8000728:	e005      	b.n	8000736 <LCD_Write_Char+0x102>
 800072a:	4b2c      	ldr	r3, [pc, #176]	; (80007dc <LCD_Write_Char+0x1a8>)
 800072c:	68db      	ldr	r3, [r3, #12]
 800072e:	4a2b      	ldr	r2, [pc, #172]	; (80007dc <LCD_Write_Char+0x1a8>)
 8000730:	f443 5380 	orr.w	r3, r3, #4096	; 0x1000
 8000734:	60d3      	str	r3, [r2, #12]
	D6(GET_BIT(data,2));   /*Send the least four bit to data pins.*/
 8000736:	79fb      	ldrb	r3, [r7, #7]
 8000738:	089b      	lsrs	r3, r3, #2
 800073a:	b2db      	uxtb	r3, r3
 800073c:	f003 0301 	and.w	r3, r3, #1
 8000740:	2b00      	cmp	r3, #0
 8000742:	d106      	bne.n	8000752 <LCD_Write_Char+0x11e>
 8000744:	4b25      	ldr	r3, [pc, #148]	; (80007dc <LCD_Write_Char+0x1a8>)
 8000746:	68db      	ldr	r3, [r3, #12]
 8000748:	4a24      	ldr	r2, [pc, #144]	; (80007dc <LCD_Write_Char+0x1a8>)
 800074a:	f423 5300 	bic.w	r3, r3, #8192	; 0x2000
 800074e:	60d3      	str	r3, [r2, #12]
 8000750:	e005      	b.n	800075e <LCD_Write_Char+0x12a>
 8000752:	4b22      	ldr	r3, [pc, #136]	; (80007dc <LCD_Write_Char+0x1a8>)
 8000754:	68db      	ldr	r3, [r3, #12]
 8000756:	4a21      	ldr	r2, [pc, #132]	; (80007dc <LCD_Write_Char+0x1a8>)
 8000758:	f443 5300 	orr.w	r3, r3, #8192	; 0x2000
 800075c:	60d3      	str	r3, [r2, #12]
	D5(GET_BIT(data,1));
 800075e:	79fb      	ldrb	r3, [r7, #7]
 8000760:	085b      	lsrs	r3, r3, #1
 8000762:	b2db      	uxtb	r3, r3
 8000764:	f003 0301 	and.w	r3, r3, #1
 8000768:	2b00      	cmp	r3, #0
 800076a:	d106      	bne.n	800077a <LCD_Write_Char+0x146>
 800076c:	4b1b      	ldr	r3, [pc, #108]	; (80007dc <LCD_Write_Char+0x1a8>)
 800076e:	68db      	ldr	r3, [r3, #12]
 8000770:	4a1a      	ldr	r2, [pc, #104]	; (80007dc <LCD_Write_Char+0x1a8>)
 8000772:	f423 4380 	bic.w	r3, r3, #16384	; 0x4000
 8000776:	60d3      	str	r3, [r2, #12]
 8000778:	e005      	b.n	8000786 <LCD_Write_Char+0x152>
 800077a:	4b18      	ldr	r3, [pc, #96]	; (80007dc <LCD_Write_Char+0x1a8>)
 800077c:	68db      	ldr	r3, [r3, #12]
 800077e:	4a17      	ldr	r2, [pc, #92]	; (80007dc <LCD_Write_Char+0x1a8>)
 8000780:	f443 4380 	orr.w	r3, r3, #16384	; 0x4000
 8000784:	60d3      	str	r3, [r2, #12]
	D4(GET_BIT(data,0));
 8000786:	79fb      	ldrb	r3, [r7, #7]
 8000788:	f003 0301 	and.w	r3, r3, #1
 800078c:	2b00      	cmp	r3, #0
 800078e:	d106      	bne.n	800079e <LCD_Write_Char+0x16a>
 8000790:	4b12      	ldr	r3, [pc, #72]	; (80007dc <LCD_Write_Char+0x1a8>)
 8000792:	68db      	ldr	r3, [r3, #12]
 8000794:	4a11      	ldr	r2, [pc, #68]	; (80007dc <LCD_Write_Char+0x1a8>)
 8000796:	f423 4300 	bic.w	r3, r3, #32768	; 0x8000
 800079a:	60d3      	str	r3, [r2, #12]
 800079c:	e005      	b.n	80007aa <LCD_Write_Char+0x176>
 800079e:	4b0f      	ldr	r3, [pc, #60]	; (80007dc <LCD_Write_Char+0x1a8>)
 80007a0:	68db      	ldr	r3, [r3, #12]
 80007a2:	4a0e      	ldr	r2, [pc, #56]	; (80007dc <LCD_Write_Char+0x1a8>)
 80007a4:	f443 4300 	orr.w	r3, r3, #32768	; 0x8000
 80007a8:	60d3      	str	r3, [r2, #12]
	TRIGGER_LCD(); /*Enable EN for 1 ms then disable it for 1ms.*/
 80007aa:	4b0b      	ldr	r3, [pc, #44]	; (80007d8 <LCD_Write_Char+0x1a4>)
 80007ac:	68db      	ldr	r3, [r3, #12]
 80007ae:	4a0a      	ldr	r2, [pc, #40]	; (80007d8 <LCD_Write_Char+0x1a4>)
 80007b0:	f443 7380 	orr.w	r3, r3, #256	; 0x100
 80007b4:	60d3      	str	r3, [r2, #12]
 80007b6:	2001      	movs	r0, #1
 80007b8:	f000 fd0f 	bl	80011da <delay_ms>
 80007bc:	4b06      	ldr	r3, [pc, #24]	; (80007d8 <LCD_Write_Char+0x1a4>)
 80007be:	68db      	ldr	r3, [r3, #12]
 80007c0:	4a05      	ldr	r2, [pc, #20]	; (80007d8 <LCD_Write_Char+0x1a4>)
 80007c2:	f423 7380 	bic.w	r3, r3, #256	; 0x100
 80007c6:	60d3      	str	r3, [r2, #12]
 80007c8:	2001      	movs	r0, #1
 80007ca:	f000 fd06 	bl	80011da <delay_ms>
}
 80007ce:	bf00      	nop
 80007d0:	3708      	adds	r7, #8
 80007d2:	46bd      	mov	sp, r7
 80007d4:	bd80      	pop	{r7, pc}
 80007d6:	bf00      	nop
 80007d8:	40010800 	.word	0x40010800
 80007dc:	40010c00 	.word	0x40010c00

080007e0 <LCD_Write_String>:
void LCD_Write_String(uint8_t *txt)
{
 80007e0:	b580      	push	{r7, lr}
 80007e2:	b084      	sub	sp, #16
 80007e4:	af00      	add	r7, sp, #0
 80007e6:	6078      	str	r0, [r7, #4]
     uint8_t index = 0;
 80007e8:	2300      	movs	r3, #0
 80007ea:	73fb      	strb	r3, [r7, #15]
	 while(txt[index] != '\0')
 80007ec:	e009      	b.n	8000802 <LCD_Write_String+0x22>
	 {
		 LCD_Write_Char(txt[index]);
 80007ee:	7bfb      	ldrb	r3, [r7, #15]
 80007f0:	687a      	ldr	r2, [r7, #4]
 80007f2:	4413      	add	r3, r2
 80007f4:	781b      	ldrb	r3, [r3, #0]
 80007f6:	4618      	mov	r0, r3
 80007f8:	f7ff ff1c 	bl	8000634 <LCD_Write_Char>
		 index++;
 80007fc:	7bfb      	ldrb	r3, [r7, #15]
 80007fe:	3301      	adds	r3, #1
 8000800:	73fb      	strb	r3, [r7, #15]
	 while(txt[index] != '\0')
 8000802:	7bfb      	ldrb	r3, [r7, #15]
 8000804:	687a      	ldr	r2, [r7, #4]
 8000806:	4413      	add	r3, r2
 8000808:	781b      	ldrb	r3, [r3, #0]
 800080a:	2b00      	cmp	r3, #0
 800080c:	d1ef      	bne.n	80007ee <LCD_Write_String+0xe>
	 }
}
 800080e:	bf00      	nop
 8000810:	bf00      	nop
 8000812:	3710      	adds	r7, #16
 8000814:	46bd      	mov	sp, r7
 8000816:	bd80      	pop	{r7, pc}

08000818 <Light_Init>:
#include "Light.h"

volatile uint8_t Light_flag = 0;

void Light_Init(LIGHT_Port_e LIGHT_Port, LIGHT_Pin_e LIGHT_Pin)
{
 8000818:	b580      	push	{r7, lr}
 800081a:	b084      	sub	sp, #16
 800081c:	af00      	add	r7, sp, #0
 800081e:	4603      	mov	r3, r0
 8000820:	460a      	mov	r2, r1
 8000822:	71fb      	strb	r3, [r7, #7]
 8000824:	4613      	mov	r3, r2
 8000826:	71bb      	strb	r3, [r7, #6]
	GPIO_Pin_Config pinConfig =
 8000828:	79bb      	ldrb	r3, [r7, #6]
 800082a:	b29b      	uxth	r3, r3
 800082c:	81bb      	strh	r3, [r7, #12]
 800082e:	2304      	movs	r3, #4
 8000830:	73bb      	strb	r3, [r7, #14]
 8000832:	2301      	movs	r3, #1
 8000834:	73fb      	strb	r3, [r7, #15]
	{
		.GPIO_PinNumber = LIGHT_Pin,
		.GPIO_PinMode = GPIO_MODE_OUTPUT_PP,
		.GPIO_PinSpeed = GPIO_SPEED_10MHZ,
	};
	if(LIGHT_Port == LIGHT_PORTA)
 8000836:	79fb      	ldrb	r3, [r7, #7]
 8000838:	2b00      	cmp	r3, #0
 800083a:	d106      	bne.n	800084a <Light_Init+0x32>
	{
		MCAL_GPIO_Init(GPIOA , &pinConfig);
 800083c:	f107 030c 	add.w	r3, r7, #12
 8000840:	4619      	mov	r1, r3
 8000842:	480d      	ldr	r0, [pc, #52]	; (8000878 <Light_Init+0x60>)
 8000844:	f000 fbe8 	bl	8001018 <MCAL_GPIO_Init>
	else if(LIGHT_Port == LIGHT_PORTC)
	{
		MCAL_GPIO_Init(GPIOC , &pinConfig);
	}
	else{}
}
 8000848:	e012      	b.n	8000870 <Light_Init+0x58>
	else if(LIGHT_Port == LIGHT_PORTB)
 800084a:	79fb      	ldrb	r3, [r7, #7]
 800084c:	2b01      	cmp	r3, #1
 800084e:	d106      	bne.n	800085e <Light_Init+0x46>
		MCAL_GPIO_Init(GPIOB , &pinConfig);
 8000850:	f107 030c 	add.w	r3, r7, #12
 8000854:	4619      	mov	r1, r3
 8000856:	4809      	ldr	r0, [pc, #36]	; (800087c <Light_Init+0x64>)
 8000858:	f000 fbde 	bl	8001018 <MCAL_GPIO_Init>
}
 800085c:	e008      	b.n	8000870 <Light_Init+0x58>
	else if(LIGHT_Port == LIGHT_PORTC)
 800085e:	79fb      	ldrb	r3, [r7, #7]
 8000860:	2b02      	cmp	r3, #2
 8000862:	d105      	bne.n	8000870 <Light_Init+0x58>
		MCAL_GPIO_Init(GPIOC , &pinConfig);
 8000864:	f107 030c 	add.w	r3, r7, #12
 8000868:	4619      	mov	r1, r3
 800086a:	4805      	ldr	r0, [pc, #20]	; (8000880 <Light_Init+0x68>)
 800086c:	f000 fbd4 	bl	8001018 <MCAL_GPIO_Init>
}
 8000870:	bf00      	nop
 8000872:	3710      	adds	r7, #16
 8000874:	46bd      	mov	sp, r7
 8000876:	bd80      	pop	{r7, pc}
 8000878:	40010800 	.word	0x40010800
 800087c:	40010c00 	.word	0x40010c00
 8000880:	40011000 	.word	0x40011000

08000884 <Light_On>:
void Light_On(LIGHT_Port_e LIGHT_Port, LIGHT_Pin_e LIGHT_Pin)
{
 8000884:	b580      	push	{r7, lr}
 8000886:	b082      	sub	sp, #8
 8000888:	af00      	add	r7, sp, #0
 800088a:	4603      	mov	r3, r0
 800088c:	460a      	mov	r2, r1
 800088e:	71fb      	strb	r3, [r7, #7]
 8000890:	4613      	mov	r3, r2
 8000892:	71bb      	strb	r3, [r7, #6]
	if(LIGHT_Port == LIGHT_PORTA)
 8000894:	79fb      	ldrb	r3, [r7, #7]
 8000896:	2b00      	cmp	r3, #0
 8000898:	d107      	bne.n	80008aa <Light_On+0x26>
	{
		MCAL_GPIO_WritePin(GPIOA, LIGHT_Pin, LIGHT_ON);
 800089a:	79bb      	ldrb	r3, [r7, #6]
 800089c:	b29b      	uxth	r3, r3
 800089e:	2201      	movs	r2, #1
 80008a0:	4619      	mov	r1, r3
 80008a2:	480e      	ldr	r0, [pc, #56]	; (80008dc <Light_On+0x58>)
 80008a4:	f000 fc75 	bl	8001192 <MCAL_GPIO_WritePin>
	else if(LIGHT_Port == LIGHT_PORTC)
	{
		MCAL_GPIO_WritePin(GPIOC, LIGHT_Pin, LIGHT_ON);
	}
	else{}
}
 80008a8:	e014      	b.n	80008d4 <Light_On+0x50>
	else if(LIGHT_Port == LIGHT_PORTB)
 80008aa:	79fb      	ldrb	r3, [r7, #7]
 80008ac:	2b01      	cmp	r3, #1
 80008ae:	d107      	bne.n	80008c0 <Light_On+0x3c>
		MCAL_GPIO_WritePin(GPIOB, LIGHT_Pin, LIGHT_ON);
 80008b0:	79bb      	ldrb	r3, [r7, #6]
 80008b2:	b29b      	uxth	r3, r3
 80008b4:	2201      	movs	r2, #1
 80008b6:	4619      	mov	r1, r3
 80008b8:	4809      	ldr	r0, [pc, #36]	; (80008e0 <Light_On+0x5c>)
 80008ba:	f000 fc6a 	bl	8001192 <MCAL_GPIO_WritePin>
}
 80008be:	e009      	b.n	80008d4 <Light_On+0x50>
	else if(LIGHT_Port == LIGHT_PORTC)
 80008c0:	79fb      	ldrb	r3, [r7, #7]
 80008c2:	2b02      	cmp	r3, #2
 80008c4:	d106      	bne.n	80008d4 <Light_On+0x50>
		MCAL_GPIO_WritePin(GPIOC, LIGHT_Pin, LIGHT_ON);
 80008c6:	79bb      	ldrb	r3, [r7, #6]
 80008c8:	b29b      	uxth	r3, r3
 80008ca:	2201      	movs	r2, #1
 80008cc:	4619      	mov	r1, r3
 80008ce:	4805      	ldr	r0, [pc, #20]	; (80008e4 <Light_On+0x60>)
 80008d0:	f000 fc5f 	bl	8001192 <MCAL_GPIO_WritePin>
}
 80008d4:	bf00      	nop
 80008d6:	3708      	adds	r7, #8
 80008d8:	46bd      	mov	sp, r7
 80008da:	bd80      	pop	{r7, pc}
 80008dc:	40010800 	.word	0x40010800
 80008e0:	40010c00 	.word	0x40010c00
 80008e4:	40011000 	.word	0x40011000

080008e8 <Light_Off>:
void Light_Off(LIGHT_Port_e LIGHT_Port, LIGHT_Pin_e LIGHT_Pin)
{
 80008e8:	b580      	push	{r7, lr}
 80008ea:	b082      	sub	sp, #8
 80008ec:	af00      	add	r7, sp, #0
 80008ee:	4603      	mov	r3, r0
 80008f0:	460a      	mov	r2, r1
 80008f2:	71fb      	strb	r3, [r7, #7]
 80008f4:	4613      	mov	r3, r2
 80008f6:	71bb      	strb	r3, [r7, #6]
	if(LIGHT_Port == LIGHT_PORTA)
 80008f8:	79fb      	ldrb	r3, [r7, #7]
 80008fa:	2b00      	cmp	r3, #0
 80008fc:	d107      	bne.n	800090e <Light_Off+0x26>
	{
		MCAL_GPIO_WritePin(GPIOA, LIGHT_Pin, LIGHT_OFF);
 80008fe:	79bb      	ldrb	r3, [r7, #6]
 8000900:	b29b      	uxth	r3, r3
 8000902:	2200      	movs	r2, #0
 8000904:	4619      	mov	r1, r3
 8000906:	480e      	ldr	r0, [pc, #56]	; (8000940 <Light_Off+0x58>)
 8000908:	f000 fc43 	bl	8001192 <MCAL_GPIO_WritePin>
	{
		MCAL_GPIO_WritePin(GPIOC, LIGHT_Pin, LIGHT_OFF);
	}
	else{}

}
 800090c:	e014      	b.n	8000938 <Light_Off+0x50>
	else if(LIGHT_Port == LIGHT_PORTB)
 800090e:	79fb      	ldrb	r3, [r7, #7]
 8000910:	2b01      	cmp	r3, #1
 8000912:	d107      	bne.n	8000924 <Light_Off+0x3c>
		MCAL_GPIO_WritePin(GPIOB, LIGHT_Pin, LIGHT_OFF);
 8000914:	79bb      	ldrb	r3, [r7, #6]
 8000916:	b29b      	uxth	r3, r3
 8000918:	2200      	movs	r2, #0
 800091a:	4619      	mov	r1, r3
 800091c:	4809      	ldr	r0, [pc, #36]	; (8000944 <Light_Off+0x5c>)
 800091e:	f000 fc38 	bl	8001192 <MCAL_GPIO_WritePin>
}
 8000922:	e009      	b.n	8000938 <Light_Off+0x50>
	else if(LIGHT_Port == LIGHT_PORTC)
 8000924:	79fb      	ldrb	r3, [r7, #7]
 8000926:	2b02      	cmp	r3, #2
 8000928:	d106      	bne.n	8000938 <Light_Off+0x50>
		MCAL_GPIO_WritePin(GPIOC, LIGHT_Pin, LIGHT_OFF);
 800092a:	79bb      	ldrb	r3, [r7, #6]
 800092c:	b29b      	uxth	r3, r3
 800092e:	2200      	movs	r2, #0
 8000930:	4619      	mov	r1, r3
 8000932:	4805      	ldr	r0, [pc, #20]	; (8000948 <Light_Off+0x60>)
 8000934:	f000 fc2d 	bl	8001192 <MCAL_GPIO_WritePin>
}
 8000938:	bf00      	nop
 800093a:	3708      	adds	r7, #8
 800093c:	46bd      	mov	sp, r7
 800093e:	bd80      	pop	{r7, pc}
 8000940:	40010800 	.word	0x40010800
 8000944:	40010c00 	.word	0x40010c00
 8000948:	40011000 	.word	0x40011000

0800094c <PC_Display_Init>:
 */

#include "PC_Display.h"

void PC_Display_Init()
{
 800094c:	b580      	push	{r7, lr}
 800094e:	b086      	sub	sp, #24
 8000950:	af00      	add	r7, sp, #0
	USARTx_Config_t uart =
 8000952:	1d3b      	adds	r3, r7, #4
 8000954:	2200      	movs	r2, #0
 8000956:	601a      	str	r2, [r3, #0]
 8000958:	605a      	str	r2, [r3, #4]
 800095a:	609a      	str	r2, [r3, #8]
 800095c:	60da      	str	r2, [r3, #12]
 800095e:	611a      	str	r2, [r3, #16]
 8000960:	4b08      	ldr	r3, [pc, #32]	; (8000984 <PC_Display_Init+0x38>)
 8000962:	607b      	str	r3, [r7, #4]
 8000964:	2302      	movs	r3, #2
 8000966:	723b      	strb	r3, [r7, #8]
 8000968:	2301      	movs	r3, #1
 800096a:	72bb      	strb	r3, [r7, #10]
 800096c:	f44f 5316 	mov.w	r3, #9600	; 0x2580
 8000970:	60fb      	str	r3, [r7, #12]
		.USART_Polling_Status = USART_Poliing_Enable,
		.USART_StopBits = USART_1_STOP_BIT,
		.USART_TX_RX_Mode = USART_RX_TX,
		.USARTx = USART1,
	};
	USARTx_Init(&uart);
 8000972:	1d3b      	adds	r3, r7, #4
 8000974:	4618      	mov	r0, r3
 8000976:	f000 fcfd 	bl	8001374 <USARTx_Init>
}
 800097a:	bf00      	nop
 800097c:	3718      	adds	r7, #24
 800097e:	46bd      	mov	sp, r7
 8000980:	bd80      	pop	{r7, pc}
 8000982:	bf00      	nop
 8000984:	40013800 	.word	0x40013800

08000988 <PC_Display_Write>:

void PC_Display_Write(uint8_t* message)
{
 8000988:	b580      	push	{r7, lr}
 800098a:	b082      	sub	sp, #8
 800098c:	af00      	add	r7, sp, #0
 800098e:	6078      	str	r0, [r7, #4]
	USARTx_SendString(USART1, message);
 8000990:	6879      	ldr	r1, [r7, #4]
 8000992:	4803      	ldr	r0, [pc, #12]	; (80009a0 <PC_Display_Write+0x18>)
 8000994:	f000 fed5 	bl	8001742 <USARTx_SendString>
}
 8000998:	bf00      	nop
 800099a:	3708      	adds	r7, #8
 800099c:	46bd      	mov	sp, r7
 800099e:	bd80      	pop	{r7, pc}
 80009a0:	40013800 	.word	0x40013800

080009a4 <EXTI_GPIO_Init>:
void NVIC_Disable	(uint8_t);
/*=======================================================
* Functions definition
* =======================================================*/
void EXTI_GPIO_Init(EXTI_PinConfig_t* EXTI_Config)
{
 80009a4:	b580      	push	{r7, lr}
 80009a6:	b084      	sub	sp, #16
 80009a8:	af00      	add	r7, sp, #0
 80009aa:	6078      	str	r0, [r7, #4]
	/*Enable CLK of AFIO.*/
	RCC_AFIO_CLK_EN();
 80009ac:	4ba0      	ldr	r3, [pc, #640]	; (8000c30 <EXTI_GPIO_Init+0x28c>)
 80009ae:	699b      	ldr	r3, [r3, #24]
 80009b0:	4a9f      	ldr	r2, [pc, #636]	; (8000c30 <EXTI_GPIO_Init+0x28c>)
 80009b2:	f043 0301 	orr.w	r3, r3, #1
 80009b6:	6193      	str	r3, [r2, #24]

	// 1. Configure the pin as AFIO Input
	GPIO_Pin_Config pin =
 80009b8:	2300      	movs	r3, #0
 80009ba:	60bb      	str	r3, [r7, #8]
	{.GPIO_PinNumber = EXTI_Config->EXTI_PIN_Mapping.pinNumber,
 80009bc:	687b      	ldr	r3, [r7, #4]
 80009be:	785b      	ldrb	r3, [r3, #1]
 80009c0:	b29b      	uxth	r3, r3
	GPIO_Pin_Config pin =
 80009c2:	813b      	strh	r3, [r7, #8]
 80009c4:	2308      	movs	r3, #8
 80009c6:	72bb      	strb	r3, [r7, #10]
	 .GPIO_PinMode = GPIO_MODE_AFIO_IN,
	};
	MCAL_GPIO_Init(EXTI_Config->EXTI_PIN_Mapping.GPIOx, &pin);
 80009c8:	687b      	ldr	r3, [r7, #4]
 80009ca:	685b      	ldr	r3, [r3, #4]
 80009cc:	f107 0208 	add.w	r2, r7, #8
 80009d0:	4611      	mov	r1, r2
 80009d2:	4618      	mov	r0, r3
 80009d4:	f000 fb20 	bl	8001018 <MCAL_GPIO_Init>
	/*====================================================================*/
	// 1. Select between PORTA, B, and C Pins
	uint16_t selectedPort;
	if(EXTI_Config->EXTI_PIN_Mapping.GPIOx == GPIOA)
 80009d8:	687b      	ldr	r3, [r7, #4]
 80009da:	685b      	ldr	r3, [r3, #4]
 80009dc:	4a95      	ldr	r2, [pc, #596]	; (8000c34 <EXTI_GPIO_Init+0x290>)
 80009de:	4293      	cmp	r3, r2
 80009e0:	d102      	bne.n	80009e8 <EXTI_GPIO_Init+0x44>
	{
		selectedPort = 0x0000;
 80009e2:	2300      	movs	r3, #0
 80009e4:	81fb      	strh	r3, [r7, #14]
 80009e6:	e00e      	b.n	8000a06 <EXTI_GPIO_Init+0x62>
	}
	else if(EXTI_Config->EXTI_PIN_Mapping.GPIOx == GPIOB)
 80009e8:	687b      	ldr	r3, [r7, #4]
 80009ea:	685b      	ldr	r3, [r3, #4]
 80009ec:	4a92      	ldr	r2, [pc, #584]	; (8000c38 <EXTI_GPIO_Init+0x294>)
 80009ee:	4293      	cmp	r3, r2
 80009f0:	d102      	bne.n	80009f8 <EXTI_GPIO_Init+0x54>
	{
		selectedPort = 0x0001;
 80009f2:	2301      	movs	r3, #1
 80009f4:	81fb      	strh	r3, [r7, #14]
 80009f6:	e006      	b.n	8000a06 <EXTI_GPIO_Init+0x62>
	}
	else if(EXTI_Config->EXTI_PIN_Mapping.GPIOx == GPIOC)
 80009f8:	687b      	ldr	r3, [r7, #4]
 80009fa:	685b      	ldr	r3, [r3, #4]
 80009fc:	4a8f      	ldr	r2, [pc, #572]	; (8000c3c <EXTI_GPIO_Init+0x298>)
 80009fe:	4293      	cmp	r3, r2
 8000a00:	d101      	bne.n	8000a06 <EXTI_GPIO_Init+0x62>
	{
		selectedPort = 0x0010;
 8000a02:	2310      	movs	r3, #16
 8000a04:	81fb      	strh	r3, [r7, #14]
	}
	else{}
	/*==================================================================*/
	// 2.1. Assign the registers
	if(EXTI_Config->EXTI_PIN_Mapping.EXTIx < 4)
 8000a06:	687b      	ldr	r3, [r7, #4]
 8000a08:	781b      	ldrb	r3, [r3, #0]
 8000a0a:	2b03      	cmp	r3, #3
 8000a0c:	d819      	bhi.n	8000a42 <EXTI_GPIO_Init+0x9e>
	{
		AFIO->EXTICR1 &= ~(0xF << (EXTI_Config->EXTI_PIN_Mapping.EXTIx*4)); //Make sure that the bits are clear
 8000a0e:	4b8c      	ldr	r3, [pc, #560]	; (8000c40 <EXTI_GPIO_Init+0x29c>)
 8000a10:	689b      	ldr	r3, [r3, #8]
 8000a12:	687a      	ldr	r2, [r7, #4]
 8000a14:	7812      	ldrb	r2, [r2, #0]
 8000a16:	0092      	lsls	r2, r2, #2
 8000a18:	210f      	movs	r1, #15
 8000a1a:	fa01 f202 	lsl.w	r2, r1, r2
 8000a1e:	43d2      	mvns	r2, r2
 8000a20:	4611      	mov	r1, r2
 8000a22:	4a87      	ldr	r2, [pc, #540]	; (8000c40 <EXTI_GPIO_Init+0x29c>)
 8000a24:	400b      	ands	r3, r1
 8000a26:	6093      	str	r3, [r2, #8]
		AFIO->EXTICR1 |= (selectedPort << (EXTI_Config->EXTI_PIN_Mapping.EXTIx*4));
 8000a28:	4b85      	ldr	r3, [pc, #532]	; (8000c40 <EXTI_GPIO_Init+0x29c>)
 8000a2a:	689b      	ldr	r3, [r3, #8]
 8000a2c:	89f9      	ldrh	r1, [r7, #14]
 8000a2e:	687a      	ldr	r2, [r7, #4]
 8000a30:	7812      	ldrb	r2, [r2, #0]
 8000a32:	0092      	lsls	r2, r2, #2
 8000a34:	fa01 f202 	lsl.w	r2, r1, r2
 8000a38:	4611      	mov	r1, r2
 8000a3a:	4a81      	ldr	r2, [pc, #516]	; (8000c40 <EXTI_GPIO_Init+0x29c>)
 8000a3c:	430b      	orrs	r3, r1
 8000a3e:	6093      	str	r3, [r2, #8]
 8000a40:	e05e      	b.n	8000b00 <EXTI_GPIO_Init+0x15c>
	}
	else if(EXTI_Config->EXTI_PIN_Mapping.EXTIx < 8)
 8000a42:	687b      	ldr	r3, [r7, #4]
 8000a44:	781b      	ldrb	r3, [r3, #0]
 8000a46:	2b07      	cmp	r3, #7
 8000a48:	d81b      	bhi.n	8000a82 <EXTI_GPIO_Init+0xde>
	{
		AFIO->EXTICR2 &= ~(0xF << ((EXTI_Config->EXTI_PIN_Mapping.EXTIx - 4)* 4)); //Make sure that the bits are clear
 8000a4a:	4b7d      	ldr	r3, [pc, #500]	; (8000c40 <EXTI_GPIO_Init+0x29c>)
 8000a4c:	68db      	ldr	r3, [r3, #12]
 8000a4e:	687a      	ldr	r2, [r7, #4]
 8000a50:	7812      	ldrb	r2, [r2, #0]
 8000a52:	3a04      	subs	r2, #4
 8000a54:	0092      	lsls	r2, r2, #2
 8000a56:	210f      	movs	r1, #15
 8000a58:	fa01 f202 	lsl.w	r2, r1, r2
 8000a5c:	43d2      	mvns	r2, r2
 8000a5e:	4611      	mov	r1, r2
 8000a60:	4a77      	ldr	r2, [pc, #476]	; (8000c40 <EXTI_GPIO_Init+0x29c>)
 8000a62:	400b      	ands	r3, r1
 8000a64:	60d3      	str	r3, [r2, #12]
		AFIO->EXTICR2 |= (selectedPort << ((EXTI_Config->EXTI_PIN_Mapping.EXTIx - 4)* 4));
 8000a66:	4b76      	ldr	r3, [pc, #472]	; (8000c40 <EXTI_GPIO_Init+0x29c>)
 8000a68:	68db      	ldr	r3, [r3, #12]
 8000a6a:	89f9      	ldrh	r1, [r7, #14]
 8000a6c:	687a      	ldr	r2, [r7, #4]
 8000a6e:	7812      	ldrb	r2, [r2, #0]
 8000a70:	3a04      	subs	r2, #4
 8000a72:	0092      	lsls	r2, r2, #2
 8000a74:	fa01 f202 	lsl.w	r2, r1, r2
 8000a78:	4611      	mov	r1, r2
 8000a7a:	4a71      	ldr	r2, [pc, #452]	; (8000c40 <EXTI_GPIO_Init+0x29c>)
 8000a7c:	430b      	orrs	r3, r1
 8000a7e:	60d3      	str	r3, [r2, #12]
 8000a80:	e03e      	b.n	8000b00 <EXTI_GPIO_Init+0x15c>
	}
	else if(EXTI_Config->EXTI_PIN_Mapping.EXTIx < 12)
 8000a82:	687b      	ldr	r3, [r7, #4]
 8000a84:	781b      	ldrb	r3, [r3, #0]
 8000a86:	2b0b      	cmp	r3, #11
 8000a88:	d81b      	bhi.n	8000ac2 <EXTI_GPIO_Init+0x11e>
	{
		AFIO->EXTICR3 &= ~(0xF << ((EXTI_Config->EXTI_PIN_Mapping.EXTIx - 8)* 4)); //Make sure that the bits are clear
 8000a8a:	4b6d      	ldr	r3, [pc, #436]	; (8000c40 <EXTI_GPIO_Init+0x29c>)
 8000a8c:	691b      	ldr	r3, [r3, #16]
 8000a8e:	687a      	ldr	r2, [r7, #4]
 8000a90:	7812      	ldrb	r2, [r2, #0]
 8000a92:	3a08      	subs	r2, #8
 8000a94:	0092      	lsls	r2, r2, #2
 8000a96:	210f      	movs	r1, #15
 8000a98:	fa01 f202 	lsl.w	r2, r1, r2
 8000a9c:	43d2      	mvns	r2, r2
 8000a9e:	4611      	mov	r1, r2
 8000aa0:	4a67      	ldr	r2, [pc, #412]	; (8000c40 <EXTI_GPIO_Init+0x29c>)
 8000aa2:	400b      	ands	r3, r1
 8000aa4:	6113      	str	r3, [r2, #16]
		AFIO->EXTICR3 |= (selectedPort << ((EXTI_Config->EXTI_PIN_Mapping.EXTIx - 8)* 4));
 8000aa6:	4b66      	ldr	r3, [pc, #408]	; (8000c40 <EXTI_GPIO_Init+0x29c>)
 8000aa8:	691b      	ldr	r3, [r3, #16]
 8000aaa:	89f9      	ldrh	r1, [r7, #14]
 8000aac:	687a      	ldr	r2, [r7, #4]
 8000aae:	7812      	ldrb	r2, [r2, #0]
 8000ab0:	3a08      	subs	r2, #8
 8000ab2:	0092      	lsls	r2, r2, #2
 8000ab4:	fa01 f202 	lsl.w	r2, r1, r2
 8000ab8:	4611      	mov	r1, r2
 8000aba:	4a61      	ldr	r2, [pc, #388]	; (8000c40 <EXTI_GPIO_Init+0x29c>)
 8000abc:	430b      	orrs	r3, r1
 8000abe:	6113      	str	r3, [r2, #16]
 8000ac0:	e01e      	b.n	8000b00 <EXTI_GPIO_Init+0x15c>
	}
	else if(EXTI_Config->EXTI_PIN_Mapping.EXTIx < 16)
 8000ac2:	687b      	ldr	r3, [r7, #4]
 8000ac4:	781b      	ldrb	r3, [r3, #0]
 8000ac6:	2b0f      	cmp	r3, #15
 8000ac8:	d81a      	bhi.n	8000b00 <EXTI_GPIO_Init+0x15c>
	{
		AFIO->EXTICR4 &= ~(0xF << ((EXTI_Config->EXTI_PIN_Mapping.EXTIx - 12)* 4)); //Make sure that the bits are clear
 8000aca:	4b5d      	ldr	r3, [pc, #372]	; (8000c40 <EXTI_GPIO_Init+0x29c>)
 8000acc:	695b      	ldr	r3, [r3, #20]
 8000ace:	687a      	ldr	r2, [r7, #4]
 8000ad0:	7812      	ldrb	r2, [r2, #0]
 8000ad2:	3a0c      	subs	r2, #12
 8000ad4:	0092      	lsls	r2, r2, #2
 8000ad6:	210f      	movs	r1, #15
 8000ad8:	fa01 f202 	lsl.w	r2, r1, r2
 8000adc:	43d2      	mvns	r2, r2
 8000ade:	4611      	mov	r1, r2
 8000ae0:	4a57      	ldr	r2, [pc, #348]	; (8000c40 <EXTI_GPIO_Init+0x29c>)
 8000ae2:	400b      	ands	r3, r1
 8000ae4:	6153      	str	r3, [r2, #20]
		AFIO->EXTICR4 |= (selectedPort << ((EXTI_Config->EXTI_PIN_Mapping.EXTIx - 12)* 4));
 8000ae6:	4b56      	ldr	r3, [pc, #344]	; (8000c40 <EXTI_GPIO_Init+0x29c>)
 8000ae8:	695b      	ldr	r3, [r3, #20]
 8000aea:	89f9      	ldrh	r1, [r7, #14]
 8000aec:	687a      	ldr	r2, [r7, #4]
 8000aee:	7812      	ldrb	r2, [r2, #0]
 8000af0:	3a0c      	subs	r2, #12
 8000af2:	0092      	lsls	r2, r2, #2
 8000af4:	fa01 f202 	lsl.w	r2, r1, r2
 8000af8:	4611      	mov	r1, r2
 8000afa:	4a51      	ldr	r2, [pc, #324]	; (8000c40 <EXTI_GPIO_Init+0x29c>)
 8000afc:	430b      	orrs	r3, r1
 8000afe:	6153      	str	r3, [r2, #20]
	}
	else{}
	/*====================================================================*/
	// 3. Interrupt Trigger Falling or Rising
	if(EXTI_Config->triggerCase == EXTIx_Trigger_RISING)
 8000b00:	687b      	ldr	r3, [r7, #4]
 8000b02:	7b1b      	ldrb	r3, [r3, #12]
 8000b04:	2b00      	cmp	r3, #0
 8000b06:	d117      	bne.n	8000b38 <EXTI_GPIO_Init+0x194>
	{
		EXTI->RTSR &= ~(1 << EXTI_Config->EXTI_PIN_Mapping.EXTIx);
 8000b08:	4b4e      	ldr	r3, [pc, #312]	; (8000c44 <EXTI_GPIO_Init+0x2a0>)
 8000b0a:	689b      	ldr	r3, [r3, #8]
 8000b0c:	687a      	ldr	r2, [r7, #4]
 8000b0e:	7812      	ldrb	r2, [r2, #0]
 8000b10:	4611      	mov	r1, r2
 8000b12:	2201      	movs	r2, #1
 8000b14:	408a      	lsls	r2, r1
 8000b16:	43d2      	mvns	r2, r2
 8000b18:	4611      	mov	r1, r2
 8000b1a:	4a4a      	ldr	r2, [pc, #296]	; (8000c44 <EXTI_GPIO_Init+0x2a0>)
 8000b1c:	400b      	ands	r3, r1
 8000b1e:	6093      	str	r3, [r2, #8]
		EXTI->RTSR |= (1 << EXTI_Config->EXTI_PIN_Mapping.EXTIx);
 8000b20:	4b48      	ldr	r3, [pc, #288]	; (8000c44 <EXTI_GPIO_Init+0x2a0>)
 8000b22:	689b      	ldr	r3, [r3, #8]
 8000b24:	687a      	ldr	r2, [r7, #4]
 8000b26:	7812      	ldrb	r2, [r2, #0]
 8000b28:	4611      	mov	r1, r2
 8000b2a:	2201      	movs	r2, #1
 8000b2c:	408a      	lsls	r2, r1
 8000b2e:	4611      	mov	r1, r2
 8000b30:	4a44      	ldr	r2, [pc, #272]	; (8000c44 <EXTI_GPIO_Init+0x2a0>)
 8000b32:	430b      	orrs	r3, r1
 8000b34:	6093      	str	r3, [r2, #8]
 8000b36:	e049      	b.n	8000bcc <EXTI_GPIO_Init+0x228>
	}
	else if(EXTI_Config->triggerCase == EXTIx_Trigger_FALLING)
 8000b38:	687b      	ldr	r3, [r7, #4]
 8000b3a:	7b1b      	ldrb	r3, [r3, #12]
 8000b3c:	2b01      	cmp	r3, #1
 8000b3e:	d117      	bne.n	8000b70 <EXTI_GPIO_Init+0x1cc>
	{
		EXTI->FTSR &= ~(1 << EXTI_Config->EXTI_PIN_Mapping.EXTIx);
 8000b40:	4b40      	ldr	r3, [pc, #256]	; (8000c44 <EXTI_GPIO_Init+0x2a0>)
 8000b42:	68db      	ldr	r3, [r3, #12]
 8000b44:	687a      	ldr	r2, [r7, #4]
 8000b46:	7812      	ldrb	r2, [r2, #0]
 8000b48:	4611      	mov	r1, r2
 8000b4a:	2201      	movs	r2, #1
 8000b4c:	408a      	lsls	r2, r1
 8000b4e:	43d2      	mvns	r2, r2
 8000b50:	4611      	mov	r1, r2
 8000b52:	4a3c      	ldr	r2, [pc, #240]	; (8000c44 <EXTI_GPIO_Init+0x2a0>)
 8000b54:	400b      	ands	r3, r1
 8000b56:	60d3      	str	r3, [r2, #12]
		EXTI->FTSR |= (1 << EXTI_Config->EXTI_PIN_Mapping.EXTIx);
 8000b58:	4b3a      	ldr	r3, [pc, #232]	; (8000c44 <EXTI_GPIO_Init+0x2a0>)
 8000b5a:	68db      	ldr	r3, [r3, #12]
 8000b5c:	687a      	ldr	r2, [r7, #4]
 8000b5e:	7812      	ldrb	r2, [r2, #0]
 8000b60:	4611      	mov	r1, r2
 8000b62:	2201      	movs	r2, #1
 8000b64:	408a      	lsls	r2, r1
 8000b66:	4611      	mov	r1, r2
 8000b68:	4a36      	ldr	r2, [pc, #216]	; (8000c44 <EXTI_GPIO_Init+0x2a0>)
 8000b6a:	430b      	orrs	r3, r1
 8000b6c:	60d3      	str	r3, [r2, #12]
 8000b6e:	e02d      	b.n	8000bcc <EXTI_GPIO_Init+0x228>
	}
	else
	{
		EXTI->RTSR &= ~(1 << EXTI_Config->EXTI_PIN_Mapping.EXTIx);
 8000b70:	4b34      	ldr	r3, [pc, #208]	; (8000c44 <EXTI_GPIO_Init+0x2a0>)
 8000b72:	689b      	ldr	r3, [r3, #8]
 8000b74:	687a      	ldr	r2, [r7, #4]
 8000b76:	7812      	ldrb	r2, [r2, #0]
 8000b78:	4611      	mov	r1, r2
 8000b7a:	2201      	movs	r2, #1
 8000b7c:	408a      	lsls	r2, r1
 8000b7e:	43d2      	mvns	r2, r2
 8000b80:	4611      	mov	r1, r2
 8000b82:	4a30      	ldr	r2, [pc, #192]	; (8000c44 <EXTI_GPIO_Init+0x2a0>)
 8000b84:	400b      	ands	r3, r1
 8000b86:	6093      	str	r3, [r2, #8]
		EXTI->RTSR |= (1 << EXTI_Config->EXTI_PIN_Mapping.EXTIx);
 8000b88:	4b2e      	ldr	r3, [pc, #184]	; (8000c44 <EXTI_GPIO_Init+0x2a0>)
 8000b8a:	689b      	ldr	r3, [r3, #8]
 8000b8c:	687a      	ldr	r2, [r7, #4]
 8000b8e:	7812      	ldrb	r2, [r2, #0]
 8000b90:	4611      	mov	r1, r2
 8000b92:	2201      	movs	r2, #1
 8000b94:	408a      	lsls	r2, r1
 8000b96:	4611      	mov	r1, r2
 8000b98:	4a2a      	ldr	r2, [pc, #168]	; (8000c44 <EXTI_GPIO_Init+0x2a0>)
 8000b9a:	430b      	orrs	r3, r1
 8000b9c:	6093      	str	r3, [r2, #8]

		EXTI->FTSR &= ~(1 << EXTI_Config->EXTI_PIN_Mapping.EXTIx);
 8000b9e:	4b29      	ldr	r3, [pc, #164]	; (8000c44 <EXTI_GPIO_Init+0x2a0>)
 8000ba0:	68db      	ldr	r3, [r3, #12]
 8000ba2:	687a      	ldr	r2, [r7, #4]
 8000ba4:	7812      	ldrb	r2, [r2, #0]
 8000ba6:	4611      	mov	r1, r2
 8000ba8:	2201      	movs	r2, #1
 8000baa:	408a      	lsls	r2, r1
 8000bac:	43d2      	mvns	r2, r2
 8000bae:	4611      	mov	r1, r2
 8000bb0:	4a24      	ldr	r2, [pc, #144]	; (8000c44 <EXTI_GPIO_Init+0x2a0>)
 8000bb2:	400b      	ands	r3, r1
 8000bb4:	60d3      	str	r3, [r2, #12]
		EXTI->FTSR |= (1 << EXTI_Config->EXTI_PIN_Mapping.EXTIx);
 8000bb6:	4b23      	ldr	r3, [pc, #140]	; (8000c44 <EXTI_GPIO_Init+0x2a0>)
 8000bb8:	68db      	ldr	r3, [r3, #12]
 8000bba:	687a      	ldr	r2, [r7, #4]
 8000bbc:	7812      	ldrb	r2, [r2, #0]
 8000bbe:	4611      	mov	r1, r2
 8000bc0:	2201      	movs	r2, #1
 8000bc2:	408a      	lsls	r2, r1
 8000bc4:	4611      	mov	r1, r2
 8000bc6:	4a1f      	ldr	r2, [pc, #124]	; (8000c44 <EXTI_GPIO_Init+0x2a0>)
 8000bc8:	430b      	orrs	r3, r1
 8000bca:	60d3      	str	r3, [r2, #12]
	}
	/*====================================================================*/
	// 4. Enable Interrupt
	if(EXTI_Config->EXTIx_Enable == EXTIx_ENABLE)
 8000bcc:	687b      	ldr	r3, [r7, #4]
 8000bce:	7b5b      	ldrb	r3, [r3, #13]
 8000bd0:	2b01      	cmp	r3, #1
 8000bd2:	d110      	bne.n	8000bf6 <EXTI_GPIO_Init+0x252>
	{
		EXTI->IMR |= (1 << EXTI_Config->EXTI_PIN_Mapping.EXTIx); //EXTI Enable
 8000bd4:	4b1b      	ldr	r3, [pc, #108]	; (8000c44 <EXTI_GPIO_Init+0x2a0>)
 8000bd6:	681b      	ldr	r3, [r3, #0]
 8000bd8:	687a      	ldr	r2, [r7, #4]
 8000bda:	7812      	ldrb	r2, [r2, #0]
 8000bdc:	4611      	mov	r1, r2
 8000bde:	2201      	movs	r2, #1
 8000be0:	408a      	lsls	r2, r1
 8000be2:	4611      	mov	r1, r2
 8000be4:	4a17      	ldr	r2, [pc, #92]	; (8000c44 <EXTI_GPIO_Init+0x2a0>)
 8000be6:	430b      	orrs	r3, r1
 8000be8:	6013      	str	r3, [r2, #0]
		NVIC_Enable(EXTI_Config->EXTI_PIN_Mapping.EXTIx); //NVIC Enable
 8000bea:	687b      	ldr	r3, [r7, #4]
 8000bec:	781b      	ldrb	r3, [r3, #0]
 8000bee:	4618      	mov	r0, r3
 8000bf0:	f000 f82c 	bl	8000c4c <NVIC_Enable>
 8000bf4:	e010      	b.n	8000c18 <EXTI_GPIO_Init+0x274>
	}
	else
	{
		EXTI->IMR &= ~(1 << EXTI_Config->EXTI_PIN_Mapping.EXTIx); // EXTI Disable
 8000bf6:	4b13      	ldr	r3, [pc, #76]	; (8000c44 <EXTI_GPIO_Init+0x2a0>)
 8000bf8:	681b      	ldr	r3, [r3, #0]
 8000bfa:	687a      	ldr	r2, [r7, #4]
 8000bfc:	7812      	ldrb	r2, [r2, #0]
 8000bfe:	4611      	mov	r1, r2
 8000c00:	2201      	movs	r2, #1
 8000c02:	408a      	lsls	r2, r1
 8000c04:	43d2      	mvns	r2, r2
 8000c06:	4611      	mov	r1, r2
 8000c08:	4a0e      	ldr	r2, [pc, #56]	; (8000c44 <EXTI_GPIO_Init+0x2a0>)
 8000c0a:	400b      	ands	r3, r1
 8000c0c:	6013      	str	r3, [r2, #0]
		NVIC_Disable(EXTI_Config->EXTI_PIN_Mapping.EXTIx); //NVIC Disable
 8000c0e:	687b      	ldr	r3, [r7, #4]
 8000c10:	781b      	ldrb	r3, [r3, #0]
 8000c12:	4618      	mov	r0, r3
 8000c14:	f000 f880 	bl	8000d18 <NVIC_Disable>
	}
	// 5. Update the Handling call back function
	GP_IRQ_CallBack[EXTI_Config->EXTI_PIN_Mapping.EXTIx] = EXTI_Config->P_IRQ_CallBack;
 8000c18:	687b      	ldr	r3, [r7, #4]
 8000c1a:	781b      	ldrb	r3, [r3, #0]
 8000c1c:	4619      	mov	r1, r3
 8000c1e:	687b      	ldr	r3, [r7, #4]
 8000c20:	691b      	ldr	r3, [r3, #16]
 8000c22:	4a09      	ldr	r2, [pc, #36]	; (8000c48 <EXTI_GPIO_Init+0x2a4>)
 8000c24:	f842 3021 	str.w	r3, [r2, r1, lsl #2]
}
 8000c28:	bf00      	nop
 8000c2a:	3710      	adds	r7, #16
 8000c2c:	46bd      	mov	sp, r7
 8000c2e:	bd80      	pop	{r7, pc}
 8000c30:	40021000 	.word	0x40021000
 8000c34:	40010800 	.word	0x40010800
 8000c38:	40010c00 	.word	0x40010c00
 8000c3c:	40011000 	.word	0x40011000
 8000c40:	40010000 	.word	0x40010000
 8000c44:	40010400 	.word	0x40010400
 8000c48:	2000003c 	.word	0x2000003c

08000c4c <NVIC_Enable>:
void NVIC_Enable(uint8_t IR_Line)
{
 8000c4c:	b480      	push	{r7}
 8000c4e:	b083      	sub	sp, #12
 8000c50:	af00      	add	r7, sp, #0
 8000c52:	4603      	mov	r3, r0
 8000c54:	71fb      	strb	r3, [r7, #7]
	switch(IR_Line)
 8000c56:	79fb      	ldrb	r3, [r7, #7]
 8000c58:	2b0f      	cmp	r3, #15
 8000c5a:	d854      	bhi.n	8000d06 <NVIC_Enable+0xba>
 8000c5c:	a201      	add	r2, pc, #4	; (adr r2, 8000c64 <NVIC_Enable+0x18>)
 8000c5e:	f852 f023 	ldr.w	pc, [r2, r3, lsl #2]
 8000c62:	bf00      	nop
 8000c64:	08000ca5 	.word	0x08000ca5
 8000c68:	08000cb3 	.word	0x08000cb3
 8000c6c:	08000cc1 	.word	0x08000cc1
 8000c70:	08000ccf 	.word	0x08000ccf
 8000c74:	08000cdd 	.word	0x08000cdd
 8000c78:	08000ceb 	.word	0x08000ceb
 8000c7c:	08000ceb 	.word	0x08000ceb
 8000c80:	08000ceb 	.word	0x08000ceb
 8000c84:	08000ceb 	.word	0x08000ceb
 8000c88:	08000ceb 	.word	0x08000ceb
 8000c8c:	08000cf9 	.word	0x08000cf9
 8000c90:	08000cf9 	.word	0x08000cf9
 8000c94:	08000cf9 	.word	0x08000cf9
 8000c98:	08000cf9 	.word	0x08000cf9
 8000c9c:	08000cf9 	.word	0x08000cf9
 8000ca0:	08000cf9 	.word	0x08000cf9
		{
		case EXTI0:
			NVIC_EXTI0_Enable;
 8000ca4:	4b1a      	ldr	r3, [pc, #104]	; (8000d10 <NVIC_Enable+0xc4>)
 8000ca6:	681b      	ldr	r3, [r3, #0]
 8000ca8:	4a19      	ldr	r2, [pc, #100]	; (8000d10 <NVIC_Enable+0xc4>)
 8000caa:	f043 0340 	orr.w	r3, r3, #64	; 0x40
 8000cae:	6013      	str	r3, [r2, #0]
			break;
 8000cb0:	e029      	b.n	8000d06 <NVIC_Enable+0xba>
		case EXTI1:
				NVIC_EXTI1_Enable;
 8000cb2:	4b17      	ldr	r3, [pc, #92]	; (8000d10 <NVIC_Enable+0xc4>)
 8000cb4:	681b      	ldr	r3, [r3, #0]
 8000cb6:	4a16      	ldr	r2, [pc, #88]	; (8000d10 <NVIC_Enable+0xc4>)
 8000cb8:	f043 0380 	orr.w	r3, r3, #128	; 0x80
 8000cbc:	6013      	str	r3, [r2, #0]
				break;
 8000cbe:	e022      	b.n	8000d06 <NVIC_Enable+0xba>
		case EXTI2:
				NVIC_EXTI2_Enable;
 8000cc0:	4b13      	ldr	r3, [pc, #76]	; (8000d10 <NVIC_Enable+0xc4>)
 8000cc2:	681b      	ldr	r3, [r3, #0]
 8000cc4:	4a12      	ldr	r2, [pc, #72]	; (8000d10 <NVIC_Enable+0xc4>)
 8000cc6:	f443 7380 	orr.w	r3, r3, #256	; 0x100
 8000cca:	6013      	str	r3, [r2, #0]
				break;
 8000ccc:	e01b      	b.n	8000d06 <NVIC_Enable+0xba>
		case EXTI3:
				NVIC_EXTI3_Enable;
 8000cce:	4b10      	ldr	r3, [pc, #64]	; (8000d10 <NVIC_Enable+0xc4>)
 8000cd0:	681b      	ldr	r3, [r3, #0]
 8000cd2:	4a0f      	ldr	r2, [pc, #60]	; (8000d10 <NVIC_Enable+0xc4>)
 8000cd4:	f443 7300 	orr.w	r3, r3, #512	; 0x200
 8000cd8:	6013      	str	r3, [r2, #0]
				break;
 8000cda:	e014      	b.n	8000d06 <NVIC_Enable+0xba>
		case EXTI4:
				NVIC_EXTI4_Enable;
 8000cdc:	4b0c      	ldr	r3, [pc, #48]	; (8000d10 <NVIC_Enable+0xc4>)
 8000cde:	681b      	ldr	r3, [r3, #0]
 8000ce0:	4a0b      	ldr	r2, [pc, #44]	; (8000d10 <NVIC_Enable+0xc4>)
 8000ce2:	f443 6380 	orr.w	r3, r3, #1024	; 0x400
 8000ce6:	6013      	str	r3, [r2, #0]
				break;
 8000ce8:	e00d      	b.n	8000d06 <NVIC_Enable+0xba>
		case EXTI5:
		case EXTI6:
		case EXTI7:
		case EXTI8:
		case EXTI9:
			NVIC_EXTI5_9_Enable;
 8000cea:	4b09      	ldr	r3, [pc, #36]	; (8000d10 <NVIC_Enable+0xc4>)
 8000cec:	681b      	ldr	r3, [r3, #0]
 8000cee:	4a08      	ldr	r2, [pc, #32]	; (8000d10 <NVIC_Enable+0xc4>)
 8000cf0:	f443 0300 	orr.w	r3, r3, #8388608	; 0x800000
 8000cf4:	6013      	str	r3, [r2, #0]
				break;
 8000cf6:	e006      	b.n	8000d06 <NVIC_Enable+0xba>
		case EXTI11:
		case EXTI12:
		case EXTI13:
		case EXTI14:
		case EXTI15:
			NVIC_EXTI10_15_Enable;
 8000cf8:	4b06      	ldr	r3, [pc, #24]	; (8000d14 <NVIC_Enable+0xc8>)
 8000cfa:	681b      	ldr	r3, [r3, #0]
 8000cfc:	4a05      	ldr	r2, [pc, #20]	; (8000d14 <NVIC_Enable+0xc8>)
 8000cfe:	f443 7380 	orr.w	r3, r3, #256	; 0x100
 8000d02:	6013      	str	r3, [r2, #0]
				break;
 8000d04:	bf00      	nop
		}
}
 8000d06:	bf00      	nop
 8000d08:	370c      	adds	r7, #12
 8000d0a:	46bd      	mov	sp, r7
 8000d0c:	bc80      	pop	{r7}
 8000d0e:	4770      	bx	lr
 8000d10:	e000e100 	.word	0xe000e100
 8000d14:	e000e104 	.word	0xe000e104

08000d18 <NVIC_Disable>:
void NVIC_Disable(uint8_t IR_Line)
{
 8000d18:	b480      	push	{r7}
 8000d1a:	b083      	sub	sp, #12
 8000d1c:	af00      	add	r7, sp, #0
 8000d1e:	4603      	mov	r3, r0
 8000d20:	71fb      	strb	r3, [r7, #7]
	switch(IR_Line)
 8000d22:	79fb      	ldrb	r3, [r7, #7]
 8000d24:	2b0f      	cmp	r3, #15
 8000d26:	d854      	bhi.n	8000dd2 <NVIC_Disable+0xba>
 8000d28:	a201      	add	r2, pc, #4	; (adr r2, 8000d30 <NVIC_Disable+0x18>)
 8000d2a:	f852 f023 	ldr.w	pc, [r2, r3, lsl #2]
 8000d2e:	bf00      	nop
 8000d30:	08000d71 	.word	0x08000d71
 8000d34:	08000d7f 	.word	0x08000d7f
 8000d38:	08000d8d 	.word	0x08000d8d
 8000d3c:	08000d9b 	.word	0x08000d9b
 8000d40:	08000da9 	.word	0x08000da9
 8000d44:	08000db7 	.word	0x08000db7
 8000d48:	08000db7 	.word	0x08000db7
 8000d4c:	08000db7 	.word	0x08000db7
 8000d50:	08000db7 	.word	0x08000db7
 8000d54:	08000db7 	.word	0x08000db7
 8000d58:	08000dc5 	.word	0x08000dc5
 8000d5c:	08000dc5 	.word	0x08000dc5
 8000d60:	08000dc5 	.word	0x08000dc5
 8000d64:	08000dc5 	.word	0x08000dc5
 8000d68:	08000dc5 	.word	0x08000dc5
 8000d6c:	08000dc5 	.word	0x08000dc5
		{
		case EXTI0:
			NVIC_EXTI0_Disable;
 8000d70:	4b1a      	ldr	r3, [pc, #104]	; (8000ddc <NVIC_Disable+0xc4>)
 8000d72:	681b      	ldr	r3, [r3, #0]
 8000d74:	4a19      	ldr	r2, [pc, #100]	; (8000ddc <NVIC_Disable+0xc4>)
 8000d76:	f043 0340 	orr.w	r3, r3, #64	; 0x40
 8000d7a:	6013      	str	r3, [r2, #0]
			break;
 8000d7c:	e029      	b.n	8000dd2 <NVIC_Disable+0xba>
		case EXTI1:
			NVIC_EXTI1_Disable;
 8000d7e:	4b17      	ldr	r3, [pc, #92]	; (8000ddc <NVIC_Disable+0xc4>)
 8000d80:	681b      	ldr	r3, [r3, #0]
 8000d82:	4a16      	ldr	r2, [pc, #88]	; (8000ddc <NVIC_Disable+0xc4>)
 8000d84:	f043 0380 	orr.w	r3, r3, #128	; 0x80
 8000d88:	6013      	str	r3, [r2, #0]
			break;
 8000d8a:	e022      	b.n	8000dd2 <NVIC_Disable+0xba>
		case EXTI2:
			NVIC_EXTI2_Disable;
 8000d8c:	4b13      	ldr	r3, [pc, #76]	; (8000ddc <NVIC_Disable+0xc4>)
 8000d8e:	681b      	ldr	r3, [r3, #0]
 8000d90:	4a12      	ldr	r2, [pc, #72]	; (8000ddc <NVIC_Disable+0xc4>)
 8000d92:	f443 7380 	orr.w	r3, r3, #256	; 0x100
 8000d96:	6013      	str	r3, [r2, #0]
			break;
 8000d98:	e01b      	b.n	8000dd2 <NVIC_Disable+0xba>
		case EXTI3:
			NVIC_EXTI3_Disable;
 8000d9a:	4b10      	ldr	r3, [pc, #64]	; (8000ddc <NVIC_Disable+0xc4>)
 8000d9c:	681b      	ldr	r3, [r3, #0]
 8000d9e:	4a0f      	ldr	r2, [pc, #60]	; (8000ddc <NVIC_Disable+0xc4>)
 8000da0:	f443 7300 	orr.w	r3, r3, #512	; 0x200
 8000da4:	6013      	str	r3, [r2, #0]
			break;
 8000da6:	e014      	b.n	8000dd2 <NVIC_Disable+0xba>
		case EXTI4:
			NVIC_EXTI4_Disable;
 8000da8:	4b0c      	ldr	r3, [pc, #48]	; (8000ddc <NVIC_Disable+0xc4>)
 8000daa:	681b      	ldr	r3, [r3, #0]
 8000dac:	4a0b      	ldr	r2, [pc, #44]	; (8000ddc <NVIC_Disable+0xc4>)
 8000dae:	f443 6380 	orr.w	r3, r3, #1024	; 0x400
 8000db2:	6013      	str	r3, [r2, #0]
			break;
 8000db4:	e00d      	b.n	8000dd2 <NVIC_Disable+0xba>
		case EXTI5:
		case EXTI6:
		case EXTI7:
		case EXTI8:
		case EXTI9:
			NVIC_EXTI5_9_Disable;
 8000db6:	4b09      	ldr	r3, [pc, #36]	; (8000ddc <NVIC_Disable+0xc4>)
 8000db8:	681b      	ldr	r3, [r3, #0]
 8000dba:	4a08      	ldr	r2, [pc, #32]	; (8000ddc <NVIC_Disable+0xc4>)
 8000dbc:	f443 0300 	orr.w	r3, r3, #8388608	; 0x800000
 8000dc0:	6013      	str	r3, [r2, #0]
				break;
 8000dc2:	e006      	b.n	8000dd2 <NVIC_Disable+0xba>
		case EXTI11:
		case EXTI12:
		case EXTI13:
		case EXTI14:
		case EXTI15:
			NVIC_EXTI10_15_Disable;
 8000dc4:	4b06      	ldr	r3, [pc, #24]	; (8000de0 <NVIC_Disable+0xc8>)
 8000dc6:	681b      	ldr	r3, [r3, #0]
 8000dc8:	4a05      	ldr	r2, [pc, #20]	; (8000de0 <NVIC_Disable+0xc8>)
 8000dca:	f443 7380 	orr.w	r3, r3, #256	; 0x100
 8000dce:	6013      	str	r3, [r2, #0]
				break;
 8000dd0:	bf00      	nop
		}
}
 8000dd2:	bf00      	nop
 8000dd4:	370c      	adds	r7, #12
 8000dd6:	46bd      	mov	sp, r7
 8000dd8:	bc80      	pop	{r7}
 8000dda:	4770      	bx	lr
 8000ddc:	e000e180 	.word	0xe000e180
 8000de0:	e000e184 	.word	0xe000e184

08000de4 <EXTI0_IRQHandler>:
	NVIC_EXTI4_Disable;
	NVIC_EXTI5_9_Disable;
	NVIC_EXTI10_15_Disable;
}
void EXTI0_IRQHandler(void)
{
 8000de4:	b580      	push	{r7, lr}
 8000de6:	af00      	add	r7, sp, #0
	GP_IRQ_CallBack[0]();
 8000de8:	4b05      	ldr	r3, [pc, #20]	; (8000e00 <EXTI0_IRQHandler+0x1c>)
 8000dea:	681b      	ldr	r3, [r3, #0]
 8000dec:	4798      	blx	r3
	//Clear Pending bit - Clear by writing 1
	EXTI->PR |= (1 << 0);
 8000dee:	4b05      	ldr	r3, [pc, #20]	; (8000e04 <EXTI0_IRQHandler+0x20>)
 8000df0:	695b      	ldr	r3, [r3, #20]
 8000df2:	4a04      	ldr	r2, [pc, #16]	; (8000e04 <EXTI0_IRQHandler+0x20>)
 8000df4:	f043 0301 	orr.w	r3, r3, #1
 8000df8:	6153      	str	r3, [r2, #20]
}
 8000dfa:	bf00      	nop
 8000dfc:	bd80      	pop	{r7, pc}
 8000dfe:	bf00      	nop
 8000e00:	2000003c 	.word	0x2000003c
 8000e04:	40010400 	.word	0x40010400

08000e08 <EXTI1_IRQHandler>:
void EXTI1_IRQHandler(void)
{
 8000e08:	b580      	push	{r7, lr}
 8000e0a:	af00      	add	r7, sp, #0
	GP_IRQ_CallBack[1]();
 8000e0c:	4b05      	ldr	r3, [pc, #20]	; (8000e24 <EXTI1_IRQHandler+0x1c>)
 8000e0e:	685b      	ldr	r3, [r3, #4]
 8000e10:	4798      	blx	r3
	//Clear Pending bit - Clear by writing 1
	EXTI->PR |= (1 << 1);
 8000e12:	4b05      	ldr	r3, [pc, #20]	; (8000e28 <EXTI1_IRQHandler+0x20>)
 8000e14:	695b      	ldr	r3, [r3, #20]
 8000e16:	4a04      	ldr	r2, [pc, #16]	; (8000e28 <EXTI1_IRQHandler+0x20>)
 8000e18:	f043 0302 	orr.w	r3, r3, #2
 8000e1c:	6153      	str	r3, [r2, #20]

}
 8000e1e:	bf00      	nop
 8000e20:	bd80      	pop	{r7, pc}
 8000e22:	bf00      	nop
 8000e24:	2000003c 	.word	0x2000003c
 8000e28:	40010400 	.word	0x40010400

08000e2c <EXTI2_IRQHandler>:
void EXTI2_IRQHandler(void)
{
 8000e2c:	b580      	push	{r7, lr}
 8000e2e:	af00      	add	r7, sp, #0
	GP_IRQ_CallBack[2]();
 8000e30:	4b05      	ldr	r3, [pc, #20]	; (8000e48 <EXTI2_IRQHandler+0x1c>)
 8000e32:	689b      	ldr	r3, [r3, #8]
 8000e34:	4798      	blx	r3
	//Clear Pending bit - Clear by writing 1
	EXTI->PR |= (1 << 2);
 8000e36:	4b05      	ldr	r3, [pc, #20]	; (8000e4c <EXTI2_IRQHandler+0x20>)
 8000e38:	695b      	ldr	r3, [r3, #20]
 8000e3a:	4a04      	ldr	r2, [pc, #16]	; (8000e4c <EXTI2_IRQHandler+0x20>)
 8000e3c:	f043 0304 	orr.w	r3, r3, #4
 8000e40:	6153      	str	r3, [r2, #20]

}
 8000e42:	bf00      	nop
 8000e44:	bd80      	pop	{r7, pc}
 8000e46:	bf00      	nop
 8000e48:	2000003c 	.word	0x2000003c
 8000e4c:	40010400 	.word	0x40010400

08000e50 <EXTI3_IRQHandler>:
void EXTI3_IRQHandler(void)
{
 8000e50:	b580      	push	{r7, lr}
 8000e52:	af00      	add	r7, sp, #0
	GP_IRQ_CallBack[3]();
 8000e54:	4b05      	ldr	r3, [pc, #20]	; (8000e6c <EXTI3_IRQHandler+0x1c>)
 8000e56:	68db      	ldr	r3, [r3, #12]
 8000e58:	4798      	blx	r3
	//Clear Pending bit - Clear by writing 1
	EXTI->PR |= (1 << 3);
 8000e5a:	4b05      	ldr	r3, [pc, #20]	; (8000e70 <EXTI3_IRQHandler+0x20>)
 8000e5c:	695b      	ldr	r3, [r3, #20]
 8000e5e:	4a04      	ldr	r2, [pc, #16]	; (8000e70 <EXTI3_IRQHandler+0x20>)
 8000e60:	f043 0308 	orr.w	r3, r3, #8
 8000e64:	6153      	str	r3, [r2, #20]

}
 8000e66:	bf00      	nop
 8000e68:	bd80      	pop	{r7, pc}
 8000e6a:	bf00      	nop
 8000e6c:	2000003c 	.word	0x2000003c
 8000e70:	40010400 	.word	0x40010400

08000e74 <EXTI4_IRQHandler>:
void EXTI4_IRQHandler(void)
{
 8000e74:	b580      	push	{r7, lr}
 8000e76:	af00      	add	r7, sp, #0
	GP_IRQ_CallBack[4]();
 8000e78:	4b05      	ldr	r3, [pc, #20]	; (8000e90 <EXTI4_IRQHandler+0x1c>)
 8000e7a:	691b      	ldr	r3, [r3, #16]
 8000e7c:	4798      	blx	r3
	//Clear Pending bit - Clear by writing 1
	EXTI->PR |= (1 << 4);
 8000e7e:	4b05      	ldr	r3, [pc, #20]	; (8000e94 <EXTI4_IRQHandler+0x20>)
 8000e80:	695b      	ldr	r3, [r3, #20]
 8000e82:	4a04      	ldr	r2, [pc, #16]	; (8000e94 <EXTI4_IRQHandler+0x20>)
 8000e84:	f043 0310 	orr.w	r3, r3, #16
 8000e88:	6153      	str	r3, [r2, #20]
}
 8000e8a:	bf00      	nop
 8000e8c:	bd80      	pop	{r7, pc}
 8000e8e:	bf00      	nop
 8000e90:	2000003c 	.word	0x2000003c
 8000e94:	40010400 	.word	0x40010400

08000e98 <EXTI9_5_IRQHandler>:
void EXTI9_5_IRQHandler(void)
{
 8000e98:	b580      	push	{r7, lr}
 8000e9a:	af00      	add	r7, sp, #0
	if(GET_BIT(EXTI->PR , 5))
 8000e9c:	4b28      	ldr	r3, [pc, #160]	; (8000f40 <EXTI9_5_IRQHandler+0xa8>)
 8000e9e:	695b      	ldr	r3, [r3, #20]
 8000ea0:	095b      	lsrs	r3, r3, #5
 8000ea2:	f003 0301 	and.w	r3, r3, #1
 8000ea6:	2b00      	cmp	r3, #0
 8000ea8:	d008      	beq.n	8000ebc <EXTI9_5_IRQHandler+0x24>
	{
		GP_IRQ_CallBack[5]();
 8000eaa:	4b26      	ldr	r3, [pc, #152]	; (8000f44 <EXTI9_5_IRQHandler+0xac>)
 8000eac:	695b      	ldr	r3, [r3, #20]
 8000eae:	4798      	blx	r3
		//Clear Pending bit - Clear by writing 1
		EXTI->PR |= (1 << 5);
 8000eb0:	4b23      	ldr	r3, [pc, #140]	; (8000f40 <EXTI9_5_IRQHandler+0xa8>)
 8000eb2:	695b      	ldr	r3, [r3, #20]
 8000eb4:	4a22      	ldr	r2, [pc, #136]	; (8000f40 <EXTI9_5_IRQHandler+0xa8>)
 8000eb6:	f043 0320 	orr.w	r3, r3, #32
 8000eba:	6153      	str	r3, [r2, #20]
	}
	if(GET_BIT(EXTI->PR , 6))
 8000ebc:	4b20      	ldr	r3, [pc, #128]	; (8000f40 <EXTI9_5_IRQHandler+0xa8>)
 8000ebe:	695b      	ldr	r3, [r3, #20]
 8000ec0:	099b      	lsrs	r3, r3, #6
 8000ec2:	f003 0301 	and.w	r3, r3, #1
 8000ec6:	2b00      	cmp	r3, #0
 8000ec8:	d008      	beq.n	8000edc <EXTI9_5_IRQHandler+0x44>
	{
		GP_IRQ_CallBack[6]();
 8000eca:	4b1e      	ldr	r3, [pc, #120]	; (8000f44 <EXTI9_5_IRQHandler+0xac>)
 8000ecc:	699b      	ldr	r3, [r3, #24]
 8000ece:	4798      	blx	r3
		//Clear Pending bit - Clear by writing 1
		EXTI->PR |= (1 << 6);
 8000ed0:	4b1b      	ldr	r3, [pc, #108]	; (8000f40 <EXTI9_5_IRQHandler+0xa8>)
 8000ed2:	695b      	ldr	r3, [r3, #20]
 8000ed4:	4a1a      	ldr	r2, [pc, #104]	; (8000f40 <EXTI9_5_IRQHandler+0xa8>)
 8000ed6:	f043 0340 	orr.w	r3, r3, #64	; 0x40
 8000eda:	6153      	str	r3, [r2, #20]
	}
	if(GET_BIT(EXTI->PR , 7))
 8000edc:	4b18      	ldr	r3, [pc, #96]	; (8000f40 <EXTI9_5_IRQHandler+0xa8>)
 8000ede:	695b      	ldr	r3, [r3, #20]
 8000ee0:	09db      	lsrs	r3, r3, #7
 8000ee2:	f003 0301 	and.w	r3, r3, #1
 8000ee6:	2b00      	cmp	r3, #0
 8000ee8:	d008      	beq.n	8000efc <EXTI9_5_IRQHandler+0x64>
	{
		GP_IRQ_CallBack[7]();
 8000eea:	4b16      	ldr	r3, [pc, #88]	; (8000f44 <EXTI9_5_IRQHandler+0xac>)
 8000eec:	69db      	ldr	r3, [r3, #28]
 8000eee:	4798      	blx	r3
		//Clear Pending bit - Clear by writing 1
		EXTI->PR |= (1 << 7);
 8000ef0:	4b13      	ldr	r3, [pc, #76]	; (8000f40 <EXTI9_5_IRQHandler+0xa8>)
 8000ef2:	695b      	ldr	r3, [r3, #20]
 8000ef4:	4a12      	ldr	r2, [pc, #72]	; (8000f40 <EXTI9_5_IRQHandler+0xa8>)
 8000ef6:	f043 0380 	orr.w	r3, r3, #128	; 0x80
 8000efa:	6153      	str	r3, [r2, #20]
	}
	if(GET_BIT(EXTI->PR , 8))
 8000efc:	4b10      	ldr	r3, [pc, #64]	; (8000f40 <EXTI9_5_IRQHandler+0xa8>)
 8000efe:	695b      	ldr	r3, [r3, #20]
 8000f00:	0a1b      	lsrs	r3, r3, #8
 8000f02:	f003 0301 	and.w	r3, r3, #1
 8000f06:	2b00      	cmp	r3, #0
 8000f08:	d008      	beq.n	8000f1c <EXTI9_5_IRQHandler+0x84>
	{
		GP_IRQ_CallBack[8]();
 8000f0a:	4b0e      	ldr	r3, [pc, #56]	; (8000f44 <EXTI9_5_IRQHandler+0xac>)
 8000f0c:	6a1b      	ldr	r3, [r3, #32]
 8000f0e:	4798      	blx	r3
		//Clear Pending bit - Clear by writing 1
		EXTI->PR |= (1 << 8);
 8000f10:	4b0b      	ldr	r3, [pc, #44]	; (8000f40 <EXTI9_5_IRQHandler+0xa8>)
 8000f12:	695b      	ldr	r3, [r3, #20]
 8000f14:	4a0a      	ldr	r2, [pc, #40]	; (8000f40 <EXTI9_5_IRQHandler+0xa8>)
 8000f16:	f443 7380 	orr.w	r3, r3, #256	; 0x100
 8000f1a:	6153      	str	r3, [r2, #20]
	}
	if(GET_BIT(EXTI->PR , 9))
 8000f1c:	4b08      	ldr	r3, [pc, #32]	; (8000f40 <EXTI9_5_IRQHandler+0xa8>)
 8000f1e:	695b      	ldr	r3, [r3, #20]
 8000f20:	0a5b      	lsrs	r3, r3, #9
 8000f22:	f003 0301 	and.w	r3, r3, #1
 8000f26:	2b00      	cmp	r3, #0
 8000f28:	d008      	beq.n	8000f3c <EXTI9_5_IRQHandler+0xa4>
	{
		GP_IRQ_CallBack[9]();
 8000f2a:	4b06      	ldr	r3, [pc, #24]	; (8000f44 <EXTI9_5_IRQHandler+0xac>)
 8000f2c:	6a5b      	ldr	r3, [r3, #36]	; 0x24
 8000f2e:	4798      	blx	r3
		//Clear Pending bit - Clear by writing 1
		EXTI->PR |= (1 << 9);
 8000f30:	4b03      	ldr	r3, [pc, #12]	; (8000f40 <EXTI9_5_IRQHandler+0xa8>)
 8000f32:	695b      	ldr	r3, [r3, #20]
 8000f34:	4a02      	ldr	r2, [pc, #8]	; (8000f40 <EXTI9_5_IRQHandler+0xa8>)
 8000f36:	f443 7300 	orr.w	r3, r3, #512	; 0x200
 8000f3a:	6153      	str	r3, [r2, #20]
	}
}
 8000f3c:	bf00      	nop
 8000f3e:	bd80      	pop	{r7, pc}
 8000f40:	40010400 	.word	0x40010400
 8000f44:	2000003c 	.word	0x2000003c

08000f48 <EXTI15_10_IRQHandler>:
void EXTI15_10_IRQHandler(void)
{
 8000f48:	b580      	push	{r7, lr}
 8000f4a:	af00      	add	r7, sp, #0
	if(GET_BIT(EXTI->PR , 10))
 8000f4c:	4b30      	ldr	r3, [pc, #192]	; (8001010 <EXTI15_10_IRQHandler+0xc8>)
 8000f4e:	695b      	ldr	r3, [r3, #20]
 8000f50:	0a9b      	lsrs	r3, r3, #10
 8000f52:	f003 0301 	and.w	r3, r3, #1
 8000f56:	2b00      	cmp	r3, #0
 8000f58:	d008      	beq.n	8000f6c <EXTI15_10_IRQHandler+0x24>
	{
		GP_IRQ_CallBack[10]();
 8000f5a:	4b2e      	ldr	r3, [pc, #184]	; (8001014 <EXTI15_10_IRQHandler+0xcc>)
 8000f5c:	6a9b      	ldr	r3, [r3, #40]	; 0x28
 8000f5e:	4798      	blx	r3
		//Clear Pending bit - Clear by writing 1
		EXTI->PR |= (1 << 10);
 8000f60:	4b2b      	ldr	r3, [pc, #172]	; (8001010 <EXTI15_10_IRQHandler+0xc8>)
 8000f62:	695b      	ldr	r3, [r3, #20]
 8000f64:	4a2a      	ldr	r2, [pc, #168]	; (8001010 <EXTI15_10_IRQHandler+0xc8>)
 8000f66:	f443 6380 	orr.w	r3, r3, #1024	; 0x400
 8000f6a:	6153      	str	r3, [r2, #20]
	}
	if(GET_BIT(EXTI->PR , 11))
 8000f6c:	4b28      	ldr	r3, [pc, #160]	; (8001010 <EXTI15_10_IRQHandler+0xc8>)
 8000f6e:	695b      	ldr	r3, [r3, #20]
 8000f70:	0adb      	lsrs	r3, r3, #11
 8000f72:	f003 0301 	and.w	r3, r3, #1
 8000f76:	2b00      	cmp	r3, #0
 8000f78:	d008      	beq.n	8000f8c <EXTI15_10_IRQHandler+0x44>
	{
		GP_IRQ_CallBack[11]();
 8000f7a:	4b26      	ldr	r3, [pc, #152]	; (8001014 <EXTI15_10_IRQHandler+0xcc>)
 8000f7c:	6adb      	ldr	r3, [r3, #44]	; 0x2c
 8000f7e:	4798      	blx	r3
	//Clear Pending bit - Clear by writing 1
		EXTI->PR |= (1 << 11);
 8000f80:	4b23      	ldr	r3, [pc, #140]	; (8001010 <EXTI15_10_IRQHandler+0xc8>)
 8000f82:	695b      	ldr	r3, [r3, #20]
 8000f84:	4a22      	ldr	r2, [pc, #136]	; (8001010 <EXTI15_10_IRQHandler+0xc8>)
 8000f86:	f443 6300 	orr.w	r3, r3, #2048	; 0x800
 8000f8a:	6153      	str	r3, [r2, #20]
	}
	if(GET_BIT(EXTI->PR , 12))
 8000f8c:	4b20      	ldr	r3, [pc, #128]	; (8001010 <EXTI15_10_IRQHandler+0xc8>)
 8000f8e:	695b      	ldr	r3, [r3, #20]
 8000f90:	0b1b      	lsrs	r3, r3, #12
 8000f92:	f003 0301 	and.w	r3, r3, #1
 8000f96:	2b00      	cmp	r3, #0
 8000f98:	d008      	beq.n	8000fac <EXTI15_10_IRQHandler+0x64>
	{
		GP_IRQ_CallBack[12]();
 8000f9a:	4b1e      	ldr	r3, [pc, #120]	; (8001014 <EXTI15_10_IRQHandler+0xcc>)
 8000f9c:	6b1b      	ldr	r3, [r3, #48]	; 0x30
 8000f9e:	4798      	blx	r3
		//Clear Pending bit - Clear by writing 1
		EXTI->PR |= (1 << 12);
 8000fa0:	4b1b      	ldr	r3, [pc, #108]	; (8001010 <EXTI15_10_IRQHandler+0xc8>)
 8000fa2:	695b      	ldr	r3, [r3, #20]
 8000fa4:	4a1a      	ldr	r2, [pc, #104]	; (8001010 <EXTI15_10_IRQHandler+0xc8>)
 8000fa6:	f443 5380 	orr.w	r3, r3, #4096	; 0x1000
 8000faa:	6153      	str	r3, [r2, #20]
	}
	if(GET_BIT(EXTI->PR , 13))
 8000fac:	4b18      	ldr	r3, [pc, #96]	; (8001010 <EXTI15_10_IRQHandler+0xc8>)
 8000fae:	695b      	ldr	r3, [r3, #20]
 8000fb0:	0b5b      	lsrs	r3, r3, #13
 8000fb2:	f003 0301 	and.w	r3, r3, #1
 8000fb6:	2b00      	cmp	r3, #0
 8000fb8:	d008      	beq.n	8000fcc <EXTI15_10_IRQHandler+0x84>
	{
		GP_IRQ_CallBack[13]();
 8000fba:	4b16      	ldr	r3, [pc, #88]	; (8001014 <EXTI15_10_IRQHandler+0xcc>)
 8000fbc:	6b5b      	ldr	r3, [r3, #52]	; 0x34
 8000fbe:	4798      	blx	r3
		//Clear Pending bit - Clear by writing 1
		EXTI->PR |= (1 << 13);
 8000fc0:	4b13      	ldr	r3, [pc, #76]	; (8001010 <EXTI15_10_IRQHandler+0xc8>)
 8000fc2:	695b      	ldr	r3, [r3, #20]
 8000fc4:	4a12      	ldr	r2, [pc, #72]	; (8001010 <EXTI15_10_IRQHandler+0xc8>)
 8000fc6:	f443 5300 	orr.w	r3, r3, #8192	; 0x2000
 8000fca:	6153      	str	r3, [r2, #20]
	}
	if(GET_BIT(EXTI->PR , 14))
 8000fcc:	4b10      	ldr	r3, [pc, #64]	; (8001010 <EXTI15_10_IRQHandler+0xc8>)
 8000fce:	695b      	ldr	r3, [r3, #20]
 8000fd0:	0b9b      	lsrs	r3, r3, #14
 8000fd2:	f003 0301 	and.w	r3, r3, #1
 8000fd6:	2b00      	cmp	r3, #0
 8000fd8:	d008      	beq.n	8000fec <EXTI15_10_IRQHandler+0xa4>
	{
		GP_IRQ_CallBack[14]();
 8000fda:	4b0e      	ldr	r3, [pc, #56]	; (8001014 <EXTI15_10_IRQHandler+0xcc>)
 8000fdc:	6b9b      	ldr	r3, [r3, #56]	; 0x38
 8000fde:	4798      	blx	r3
		//Clear Pending bit - Clear by writing 1
		EXTI->PR |= (1 << 14);
 8000fe0:	4b0b      	ldr	r3, [pc, #44]	; (8001010 <EXTI15_10_IRQHandler+0xc8>)
 8000fe2:	695b      	ldr	r3, [r3, #20]
 8000fe4:	4a0a      	ldr	r2, [pc, #40]	; (8001010 <EXTI15_10_IRQHandler+0xc8>)
 8000fe6:	f443 4380 	orr.w	r3, r3, #16384	; 0x4000
 8000fea:	6153      	str	r3, [r2, #20]
	}
	if(GET_BIT(EXTI->PR , 15))
 8000fec:	4b08      	ldr	r3, [pc, #32]	; (8001010 <EXTI15_10_IRQHandler+0xc8>)
 8000fee:	695b      	ldr	r3, [r3, #20]
 8000ff0:	0bdb      	lsrs	r3, r3, #15
 8000ff2:	f003 0301 	and.w	r3, r3, #1
 8000ff6:	2b00      	cmp	r3, #0
 8000ff8:	d008      	beq.n	800100c <EXTI15_10_IRQHandler+0xc4>
	{
		GP_IRQ_CallBack[15]();
 8000ffa:	4b06      	ldr	r3, [pc, #24]	; (8001014 <EXTI15_10_IRQHandler+0xcc>)
 8000ffc:	6bdb      	ldr	r3, [r3, #60]	; 0x3c
 8000ffe:	4798      	blx	r3
		//Clear Pending bit - Clear by writing 1
		EXTI->PR |= (1 << 15);
 8001000:	4b03      	ldr	r3, [pc, #12]	; (8001010 <EXTI15_10_IRQHandler+0xc8>)
 8001002:	695b      	ldr	r3, [r3, #20]
 8001004:	4a02      	ldr	r2, [pc, #8]	; (8001010 <EXTI15_10_IRQHandler+0xc8>)
 8001006:	f443 4300 	orr.w	r3, r3, #32768	; 0x8000
 800100a:	6153      	str	r3, [r2, #20]
	}
}
 800100c:	bf00      	nop
 800100e:	bd80      	pop	{r7, pc}
 8001010:	40010400 	.word	0x40010400
 8001014:	2000003c 	.word	0x2000003c

08001018 <MCAL_GPIO_Init>:
 * @param			-pinConfig refers to the pin number and specification
 * @retVal			-none
 *================================================*/

void MCAL_GPIO_Init(GPIOx_typedef* GPIOx , GPIO_Pin_Config* pinConfig)
{
 8001018:	b480      	push	{r7}
 800101a:	b085      	sub	sp, #20
 800101c:	af00      	add	r7, sp, #0
 800101e:	6078      	str	r0, [r7, #4]
 8001020:	6039      	str	r1, [r7, #0]
	uint32_t setConfig = 0;
 8001022:	2300      	movs	r3, #0
 8001024:	60fb      	str	r3, [r7, #12]

	RCC_GPIOA_CLK_EN();
 8001026:	4b4f      	ldr	r3, [pc, #316]	; (8001164 <MCAL_GPIO_Init+0x14c>)
 8001028:	699b      	ldr	r3, [r3, #24]
 800102a:	4a4e      	ldr	r2, [pc, #312]	; (8001164 <MCAL_GPIO_Init+0x14c>)
 800102c:	f043 0304 	orr.w	r3, r3, #4
 8001030:	6193      	str	r3, [r2, #24]
	RCC_GPIOB_CLK_EN();
 8001032:	4b4c      	ldr	r3, [pc, #304]	; (8001164 <MCAL_GPIO_Init+0x14c>)
 8001034:	699b      	ldr	r3, [r3, #24]
 8001036:	4a4b      	ldr	r2, [pc, #300]	; (8001164 <MCAL_GPIO_Init+0x14c>)
 8001038:	f043 0308 	orr.w	r3, r3, #8
 800103c:	6193      	str	r3, [r2, #24]
	RCC_GPIOC_CLK_EN();
 800103e:	4b49      	ldr	r3, [pc, #292]	; (8001164 <MCAL_GPIO_Init+0x14c>)
 8001040:	699b      	ldr	r3, [r3, #24]
 8001042:	4a48      	ldr	r2, [pc, #288]	; (8001164 <MCAL_GPIO_Init+0x14c>)
 8001044:	f043 0310 	orr.w	r3, r3, #16
 8001048:	6193      	str	r3, [r2, #24]

	if((pinConfig->GPIO_PinMode == GPIO_MODE_OUTPUT_OD) || (pinConfig->GPIO_PinMode == GPIO_MODE_OUTPUT_PP) || (pinConfig->GPIO_PinMode == GPIO_MODE_AFIO_PP) || (pinConfig->GPIO_PinMode == GPIO_MODE_AFIO_OD))
 800104a:	683b      	ldr	r3, [r7, #0]
 800104c:	789b      	ldrb	r3, [r3, #2]
 800104e:	2b05      	cmp	r3, #5
 8001050:	d00b      	beq.n	800106a <MCAL_GPIO_Init+0x52>
 8001052:	683b      	ldr	r3, [r7, #0]
 8001054:	789b      	ldrb	r3, [r3, #2]
 8001056:	2b04      	cmp	r3, #4
 8001058:	d007      	beq.n	800106a <MCAL_GPIO_Init+0x52>
 800105a:	683b      	ldr	r3, [r7, #0]
 800105c:	789b      	ldrb	r3, [r3, #2]
 800105e:	2b06      	cmp	r3, #6
 8001060:	d003      	beq.n	800106a <MCAL_GPIO_Init+0x52>
 8001062:	683b      	ldr	r3, [r7, #0]
 8001064:	789b      	ldrb	r3, [r3, #2]
 8001066:	2b07      	cmp	r3, #7
 8001068:	d10a      	bne.n	8001080 <MCAL_GPIO_Init+0x68>
	{
		/*OUTPUT MODE VALUE - 4 EQUALS TO THE VALUE MUST BE WRITTEN TO ACTIVATE THAT OUTPUT MODE*/
		setConfig = ((( (pinConfig->GPIO_PinMode - 4) << 2) |(pinConfig->GPIO_PinSpeed)) & 0x0F);
 800106a:	683b      	ldr	r3, [r7, #0]
 800106c:	789b      	ldrb	r3, [r3, #2]
 800106e:	3b04      	subs	r3, #4
 8001070:	009b      	lsls	r3, r3, #2
 8001072:	683a      	ldr	r2, [r7, #0]
 8001074:	78d2      	ldrb	r2, [r2, #3]
 8001076:	4313      	orrs	r3, r2
 8001078:	f003 030f 	and.w	r3, r3, #15
 800107c:	60fb      	str	r3, [r7, #12]
 800107e:	e037      	b.n	80010f0 <MCAL_GPIO_Init+0xd8>
	}
	else
	{
		if((pinConfig->GPIO_PinMode == GPIO_MODE_ANALOG)|| (pinConfig->GPIO_PinMode == GPIO_MODE_INPUT_FLOATING))
 8001080:	683b      	ldr	r3, [r7, #0]
 8001082:	789b      	ldrb	r3, [r3, #2]
 8001084:	2b00      	cmp	r3, #0
 8001086:	d003      	beq.n	8001090 <MCAL_GPIO_Init+0x78>
 8001088:	683b      	ldr	r3, [r7, #0]
 800108a:	789b      	ldrb	r3, [r3, #2]
 800108c:	2b01      	cmp	r3, #1
 800108e:	d106      	bne.n	800109e <MCAL_GPIO_Init+0x86>
		{
			setConfig = ((pinConfig->GPIO_PinMode) << 2) & 0x0F;
 8001090:	683b      	ldr	r3, [r7, #0]
 8001092:	789b      	ldrb	r3, [r3, #2]
 8001094:	009b      	lsls	r3, r3, #2
 8001096:	f003 030f 	and.w	r3, r3, #15
 800109a:	60fb      	str	r3, [r7, #12]
 800109c:	e028      	b.n	80010f0 <MCAL_GPIO_Init+0xd8>
		}
		else if(pinConfig->GPIO_PinMode == GPIO_MODE_INPUT_PU) /*Input pull up*/
 800109e:	683b      	ldr	r3, [r7, #0]
 80010a0:	789b      	ldrb	r3, [r3, #2]
 80010a2:	2b02      	cmp	r3, #2
 80010a4:	d10c      	bne.n	80010c0 <MCAL_GPIO_Init+0xa8>
		{
			setConfig = (0x02 << 2) & 0x0F;
 80010a6:	2308      	movs	r3, #8
 80010a8:	60fb      	str	r3, [r7, #12]
			GPIOx->ODR |= (1 << pinConfig->GPIO_PinNumber); /*Set ODR pin - PxODR = 1*/
 80010aa:	687b      	ldr	r3, [r7, #4]
 80010ac:	68db      	ldr	r3, [r3, #12]
 80010ae:	683a      	ldr	r2, [r7, #0]
 80010b0:	8812      	ldrh	r2, [r2, #0]
 80010b2:	4611      	mov	r1, r2
 80010b4:	2201      	movs	r2, #1
 80010b6:	408a      	lsls	r2, r1
 80010b8:	431a      	orrs	r2, r3
 80010ba:	687b      	ldr	r3, [r7, #4]
 80010bc:	60da      	str	r2, [r3, #12]
 80010be:	e017      	b.n	80010f0 <MCAL_GPIO_Init+0xd8>

		}
		else if(pinConfig->GPIO_PinMode == GPIO_MODE_INPUT_PD)
 80010c0:	683b      	ldr	r3, [r7, #0]
 80010c2:	789b      	ldrb	r3, [r3, #2]
 80010c4:	2b03      	cmp	r3, #3
 80010c6:	d10d      	bne.n	80010e4 <MCAL_GPIO_Init+0xcc>
		{
			setConfig = (0x02 << 2) & 0x0F;
 80010c8:	2308      	movs	r3, #8
 80010ca:	60fb      	str	r3, [r7, #12]
			GPIOx->ODR &= ~(1 << pinConfig->GPIO_PinNumber); /*Reset ODE Pin - PxODR = 0*/
 80010cc:	687b      	ldr	r3, [r7, #4]
 80010ce:	68db      	ldr	r3, [r3, #12]
 80010d0:	683a      	ldr	r2, [r7, #0]
 80010d2:	8812      	ldrh	r2, [r2, #0]
 80010d4:	4611      	mov	r1, r2
 80010d6:	2201      	movs	r2, #1
 80010d8:	408a      	lsls	r2, r1
 80010da:	43d2      	mvns	r2, r2
 80010dc:	401a      	ands	r2, r3
 80010de:	687b      	ldr	r3, [r7, #4]
 80010e0:	60da      	str	r2, [r3, #12]
 80010e2:	e005      	b.n	80010f0 <MCAL_GPIO_Init+0xd8>

		}
		else if(pinConfig->GPIO_PinMode == GPIO_MODE_AFIO_IN)
 80010e4:	683b      	ldr	r3, [r7, #0]
 80010e6:	789b      	ldrb	r3, [r3, #2]
 80010e8:	2b08      	cmp	r3, #8
 80010ea:	d101      	bne.n	80010f0 <MCAL_GPIO_Init+0xd8>
		{
			setConfig = (GPIO_MODE_INPUT_FLOATING << 2) & 0x0F; /*Alternative input equals to floating input*/
 80010ec:	2304      	movs	r3, #4
 80010ee:	60fb      	str	r3, [r7, #12]
	}
	/* =====================================================================
		for 0 to 7 pins  - > pinPosition in CRL Register = pinNumber + (pinNumber * 3)
		for 8 to 15 pins - > pinPosition in CRH Register = (pinNumber-8) + ((pinNumber-8) * 3)
	=========================================================================*/
	if(pinConfig->GPIO_PinNumber < 8)
 80010f0:	683b      	ldr	r3, [r7, #0]
 80010f2:	881b      	ldrh	r3, [r3, #0]
 80010f4:	2b07      	cmp	r3, #7
 80010f6:	d817      	bhi.n	8001128 <MCAL_GPIO_Init+0x110>
	{
		GPIOx->CRL &= ~(0xf <<  (pinConfig->GPIO_PinNumber + (3 * pinConfig->GPIO_PinNumber)));
 80010f8:	687b      	ldr	r3, [r7, #4]
 80010fa:	681b      	ldr	r3, [r3, #0]
 80010fc:	683a      	ldr	r2, [r7, #0]
 80010fe:	8812      	ldrh	r2, [r2, #0]
 8001100:	0092      	lsls	r2, r2, #2
 8001102:	210f      	movs	r1, #15
 8001104:	fa01 f202 	lsl.w	r2, r1, r2
 8001108:	43d2      	mvns	r2, r2
 800110a:	401a      	ands	r2, r3
 800110c:	687b      	ldr	r3, [r7, #4]
 800110e:	601a      	str	r2, [r3, #0]
		GPIOx->CRL |= (setConfig << (pinConfig->GPIO_PinNumber + (3 * pinConfig->GPIO_PinNumber)));
 8001110:	687b      	ldr	r3, [r7, #4]
 8001112:	681a      	ldr	r2, [r3, #0]
 8001114:	683b      	ldr	r3, [r7, #0]
 8001116:	881b      	ldrh	r3, [r3, #0]
 8001118:	009b      	lsls	r3, r3, #2
 800111a:	68f9      	ldr	r1, [r7, #12]
 800111c:	fa01 f303 	lsl.w	r3, r1, r3
 8001120:	431a      	orrs	r2, r3
 8001122:	687b      	ldr	r3, [r7, #4]
 8001124:	601a      	str	r2, [r3, #0]
	{
		GPIOx->CRH &= ~(0xF << ((pinConfig->GPIO_PinNumber - 8) + (3 * (pinConfig->GPIO_PinNumber - 8))));
		GPIOx->CRH |= (setConfig << ((pinConfig->GPIO_PinNumber - 8) + (3 * (pinConfig->GPIO_PinNumber - 8))));
	}

}
 8001126:	e018      	b.n	800115a <MCAL_GPIO_Init+0x142>
		GPIOx->CRH &= ~(0xF << ((pinConfig->GPIO_PinNumber - 8) + (3 * (pinConfig->GPIO_PinNumber - 8))));
 8001128:	687b      	ldr	r3, [r7, #4]
 800112a:	685b      	ldr	r3, [r3, #4]
 800112c:	683a      	ldr	r2, [r7, #0]
 800112e:	8812      	ldrh	r2, [r2, #0]
 8001130:	3a08      	subs	r2, #8
 8001132:	0092      	lsls	r2, r2, #2
 8001134:	210f      	movs	r1, #15
 8001136:	fa01 f202 	lsl.w	r2, r1, r2
 800113a:	43d2      	mvns	r2, r2
 800113c:	401a      	ands	r2, r3
 800113e:	687b      	ldr	r3, [r7, #4]
 8001140:	605a      	str	r2, [r3, #4]
		GPIOx->CRH |= (setConfig << ((pinConfig->GPIO_PinNumber - 8) + (3 * (pinConfig->GPIO_PinNumber - 8))));
 8001142:	687b      	ldr	r3, [r7, #4]
 8001144:	685a      	ldr	r2, [r3, #4]
 8001146:	683b      	ldr	r3, [r7, #0]
 8001148:	881b      	ldrh	r3, [r3, #0]
 800114a:	3b08      	subs	r3, #8
 800114c:	009b      	lsls	r3, r3, #2
 800114e:	68f9      	ldr	r1, [r7, #12]
 8001150:	fa01 f303 	lsl.w	r3, r1, r3
 8001154:	431a      	orrs	r2, r3
 8001156:	687b      	ldr	r3, [r7, #4]
 8001158:	605a      	str	r2, [r3, #4]
}
 800115a:	bf00      	nop
 800115c:	3714      	adds	r7, #20
 800115e:	46bd      	mov	sp, r7
 8001160:	bc80      	pop	{r7}
 8001162:	4770      	bx	lr
 8001164:	40021000 	.word	0x40021000

08001168 <MCAL_GPIO_ReadPin>:
 * @param			-GPIOx where x can be A, B, or C port
 * @param			-pinNumber can be one of reference @ref Pin_numbers
 * @retVal			-uint8_t value refers to the state of the pin
 *================================================*/
uint8_t MCAL_GPIO_ReadPin(GPIOx_typedef* GPIOx , uint16_t pinNumber)
{
 8001168:	b480      	push	{r7}
 800116a:	b085      	sub	sp, #20
 800116c:	af00      	add	r7, sp, #0
 800116e:	6078      	str	r0, [r7, #4]
 8001170:	460b      	mov	r3, r1
 8001172:	807b      	strh	r3, [r7, #2]
	uint8_t value = ((GPIOx->IDR >> pinNumber) & 1);
 8001174:	687b      	ldr	r3, [r7, #4]
 8001176:	689a      	ldr	r2, [r3, #8]
 8001178:	887b      	ldrh	r3, [r7, #2]
 800117a:	fa22 f303 	lsr.w	r3, r2, r3
 800117e:	b2db      	uxtb	r3, r3
 8001180:	f003 0301 	and.w	r3, r3, #1
 8001184:	73fb      	strb	r3, [r7, #15]
	return value;
 8001186:	7bfb      	ldrb	r3, [r7, #15]
}
 8001188:	4618      	mov	r0, r3
 800118a:	3714      	adds	r7, #20
 800118c:	46bd      	mov	sp, r7
 800118e:	bc80      	pop	{r7}
 8001190:	4770      	bx	lr

08001192 <MCAL_GPIO_WritePin>:
 * @param			-pinNumber can be one of reference @ref Pin_numbers
 * @param			-uint8_t value to be written
 * @retVal			-none
 *================================================*/
void MCAL_GPIO_WritePin(GPIOx_typedef* GPIOx , uint16_t pinNumber, uint8_t value)
{
 8001192:	b480      	push	{r7}
 8001194:	b083      	sub	sp, #12
 8001196:	af00      	add	r7, sp, #0
 8001198:	6078      	str	r0, [r7, #4]
 800119a:	460b      	mov	r3, r1
 800119c:	807b      	strh	r3, [r7, #2]
 800119e:	4613      	mov	r3, r2
 80011a0:	707b      	strb	r3, [r7, #1]
	if(value == FALSE)
 80011a2:	787b      	ldrb	r3, [r7, #1]
 80011a4:	2b00      	cmp	r3, #0
 80011a6:	d10a      	bne.n	80011be <MCAL_GPIO_WritePin+0x2c>
	{
		GPIOx->ODR &= ~(1 << pinNumber);
 80011a8:	687b      	ldr	r3, [r7, #4]
 80011aa:	68db      	ldr	r3, [r3, #12]
 80011ac:	887a      	ldrh	r2, [r7, #2]
 80011ae:	2101      	movs	r1, #1
 80011b0:	fa01 f202 	lsl.w	r2, r1, r2
 80011b4:	43d2      	mvns	r2, r2
 80011b6:	401a      	ands	r2, r3
 80011b8:	687b      	ldr	r3, [r7, #4]
 80011ba:	60da      	str	r2, [r3, #12]
	}
	else
	{
		GPIOx->ODR |= (1 << pinNumber);
	}
}
 80011bc:	e008      	b.n	80011d0 <MCAL_GPIO_WritePin+0x3e>
		GPIOx->ODR |= (1 << pinNumber);
 80011be:	687b      	ldr	r3, [r7, #4]
 80011c0:	68db      	ldr	r3, [r3, #12]
 80011c2:	887a      	ldrh	r2, [r7, #2]
 80011c4:	2101      	movs	r1, #1
 80011c6:	fa01 f202 	lsl.w	r2, r1, r2
 80011ca:	431a      	orrs	r2, r3
 80011cc:	687b      	ldr	r3, [r7, #4]
 80011ce:	60da      	str	r2, [r3, #12]
}
 80011d0:	bf00      	nop
 80011d2:	370c      	adds	r7, #12
 80011d4:	46bd      	mov	sp, r7
 80011d6:	bc80      	pop	{r7}
 80011d8:	4770      	bx	lr

080011da <delay_ms>:
		return GPIO_RETURN_LOCK_ERROR;
	}
}

void delay_ms(volatile unsigned int ms)
{
 80011da:	b480      	push	{r7}
 80011dc:	b085      	sub	sp, #20
 80011de:	af00      	add	r7, sp, #0
 80011e0:	6078      	str	r0, [r7, #4]
    for (volatile unsigned int i = 0; i < ms * 800; i++) {
 80011e2:	2300      	movs	r3, #0
 80011e4:	60fb      	str	r3, [r7, #12]
 80011e6:	e003      	b.n	80011f0 <delay_ms+0x16>
        __asm("nop");
 80011e8:	bf00      	nop
    for (volatile unsigned int i = 0; i < ms * 800; i++) {
 80011ea:	68fb      	ldr	r3, [r7, #12]
 80011ec:	3301      	adds	r3, #1
 80011ee:	60fb      	str	r3, [r7, #12]
 80011f0:	687b      	ldr	r3, [r7, #4]
 80011f2:	f44f 7248 	mov.w	r2, #800	; 0x320
 80011f6:	fb03 f202 	mul.w	r2, r3, r2
 80011fa:	68fb      	ldr	r3, [r7, #12]
 80011fc:	429a      	cmp	r2, r3
 80011fe:	d8f3      	bhi.n	80011e8 <delay_ms+0xe>
    }
}
 8001200:	bf00      	nop
 8001202:	bf00      	nop
 8001204:	3714      	adds	r7, #20
 8001206:	46bd      	mov	sp, r7
 8001208:	bc80      	pop	{r7}
 800120a:	4770      	bx	lr

0800120c <RCC_GetSysCLK>:

uint8_t APB_Prescaler[8] = {0,0,0,0,1,2,3,4};
uint8_t AHB_Prescaler[16] = {0,0,0,0,0,0,0,0,1,2,3,4,6,7,8,9};

uint32_t RCC_GetSysCLK(void)
{
 800120c:	b480      	push	{r7}
 800120e:	af00      	add	r7, sp, #0
	switch((RCC->CFGR >> 2) & 0b00) /*System clock switch status*/
 8001210:	4b03      	ldr	r3, [pc, #12]	; (8001220 <RCC_GetSysCLK+0x14>)
 8001212:	685b      	ldr	r3, [r3, #4]
	{
	case 0:
		return HSI_CLK;
 8001214:	4b03      	ldr	r3, [pc, #12]	; (8001224 <RCC_GetSysCLK+0x18>)
	case 2:
		//todo
		return 16000000;
		break;
	}
}
 8001216:	4618      	mov	r0, r3
 8001218:	46bd      	mov	sp, r7
 800121a:	bc80      	pop	{r7}
 800121c:	4770      	bx	lr
 800121e:	bf00      	nop
 8001220:	40021000 	.word	0x40021000
 8001224:	007a1200 	.word	0x007a1200

08001228 <RCC_GetHCLKFreq>:
uint32_t RCC_GetHCLKFreq(void)
{
 8001228:	b580      	push	{r7, lr}
 800122a:	b082      	sub	sp, #8
 800122c:	af00      	add	r7, sp, #0
	uint8_t Prescaler = ((RCC->CFGR >> 4)& 0xF);
 800122e:	4b09      	ldr	r3, [pc, #36]	; (8001254 <RCC_GetHCLKFreq+0x2c>)
 8001230:	685b      	ldr	r3, [r3, #4]
 8001232:	091b      	lsrs	r3, r3, #4
 8001234:	b2db      	uxtb	r3, r3
 8001236:	f003 030f 	and.w	r3, r3, #15
 800123a:	71fb      	strb	r3, [r7, #7]
	return (RCC_GetSysCLK() >> AHB_Prescaler[Prescaler]);
 800123c:	f7ff ffe6 	bl	800120c <RCC_GetSysCLK>
 8001240:	4602      	mov	r2, r0
 8001242:	79fb      	ldrb	r3, [r7, #7]
 8001244:	4904      	ldr	r1, [pc, #16]	; (8001258 <RCC_GetHCLKFreq+0x30>)
 8001246:	5ccb      	ldrb	r3, [r1, r3]
 8001248:	fa22 f303 	lsr.w	r3, r2, r3
}
 800124c:	4618      	mov	r0, r3
 800124e:	3708      	adds	r7, #8
 8001250:	46bd      	mov	sp, r7
 8001252:	bd80      	pop	{r7, pc}
 8001254:	40021000 	.word	0x40021000
 8001258:	2000000c 	.word	0x2000000c

0800125c <RCC_GetPCLK1Freq>:
uint32_t RCC_GetPCLK1Freq(void)
{
 800125c:	b580      	push	{r7, lr}
 800125e:	b082      	sub	sp, #8
 8001260:	af00      	add	r7, sp, #0
	uint8_t Prescaler = ((RCC->CFGR >> 8)& 0x7);
 8001262:	4b09      	ldr	r3, [pc, #36]	; (8001288 <RCC_GetPCLK1Freq+0x2c>)
 8001264:	685b      	ldr	r3, [r3, #4]
 8001266:	0a1b      	lsrs	r3, r3, #8
 8001268:	b2db      	uxtb	r3, r3
 800126a:	f003 0307 	and.w	r3, r3, #7
 800126e:	71fb      	strb	r3, [r7, #7]
	return (RCC_GetHCLKFreq() >> APB_Prescaler[Prescaler]);
 8001270:	f7ff ffda 	bl	8001228 <RCC_GetHCLKFreq>
 8001274:	4602      	mov	r2, r0
 8001276:	79fb      	ldrb	r3, [r7, #7]
 8001278:	4904      	ldr	r1, [pc, #16]	; (800128c <RCC_GetPCLK1Freq+0x30>)
 800127a:	5ccb      	ldrb	r3, [r1, r3]
 800127c:	fa22 f303 	lsr.w	r3, r2, r3
}
 8001280:	4618      	mov	r0, r3
 8001282:	3708      	adds	r7, #8
 8001284:	46bd      	mov	sp, r7
 8001286:	bd80      	pop	{r7, pc}
 8001288:	40021000 	.word	0x40021000
 800128c:	20000004 	.word	0x20000004

08001290 <RCC_GetPCLK2Freq>:
uint32_t RCC_GetPCLK2Freq(void)
{
 8001290:	b580      	push	{r7, lr}
 8001292:	b082      	sub	sp, #8
 8001294:	af00      	add	r7, sp, #0
	uint8_t Prescaler = ((RCC->CFGR >> 11)& 0x7);
 8001296:	4b09      	ldr	r3, [pc, #36]	; (80012bc <RCC_GetPCLK2Freq+0x2c>)
 8001298:	685b      	ldr	r3, [r3, #4]
 800129a:	0adb      	lsrs	r3, r3, #11
 800129c:	b2db      	uxtb	r3, r3
 800129e:	f003 0307 	and.w	r3, r3, #7
 80012a2:	71fb      	strb	r3, [r7, #7]
	return (RCC_GetHCLKFreq() >> APB_Prescaler[Prescaler]);
 80012a4:	f7ff ffc0 	bl	8001228 <RCC_GetHCLKFreq>
 80012a8:	4602      	mov	r2, r0
 80012aa:	79fb      	ldrb	r3, [r7, #7]
 80012ac:	4904      	ldr	r1, [pc, #16]	; (80012c0 <RCC_GetPCLK2Freq+0x30>)
 80012ae:	5ccb      	ldrb	r3, [r1, r3]
 80012b0:	fa22 f303 	lsr.w	r3, r2, r3
}
 80012b4:	4618      	mov	r0, r3
 80012b6:	3708      	adds	r7, #8
 80012b8:	46bd      	mov	sp, r7
 80012ba:	bd80      	pop	{r7, pc}
 80012bc:	40021000 	.word	0x40021000
 80012c0:	20000004 	.word	0x20000004

080012c4 <SPI1_IRQHandler>:
}

/*IRQ.*/

void SPI1_IRQHandler(void)
{
 80012c4:	b580      	push	{r7, lr}
 80012c6:	b082      	sub	sp, #8
 80012c8:	af00      	add	r7, sp, #0
	SPI_IRQ_SRC_t src;
	src.TXE = ((SPI1->SPI_SR >> 1) & 1);
 80012ca:	4b12      	ldr	r3, [pc, #72]	; (8001314 <SPI1_IRQHandler+0x50>)
 80012cc:	689b      	ldr	r3, [r3, #8]
 80012ce:	085b      	lsrs	r3, r3, #1
 80012d0:	f003 0301 	and.w	r3, r3, #1
 80012d4:	b2da      	uxtb	r2, r3
 80012d6:	793b      	ldrb	r3, [r7, #4]
 80012d8:	f362 0300 	bfi	r3, r2, #0, #1
 80012dc:	713b      	strb	r3, [r7, #4]
	src.RXNE = ((SPI1->SPI_SR >> 0) & 1);
 80012de:	4b0d      	ldr	r3, [pc, #52]	; (8001314 <SPI1_IRQHandler+0x50>)
 80012e0:	689b      	ldr	r3, [r3, #8]
 80012e2:	f003 0301 	and.w	r3, r3, #1
 80012e6:	b2da      	uxtb	r2, r3
 80012e8:	793b      	ldrb	r3, [r7, #4]
 80012ea:	f362 0341 	bfi	r3, r2, #1, #1
 80012ee:	713b      	strb	r3, [r7, #4]
	src.TXE = ((SPI1->SPI_SR >> 4) & 1);
 80012f0:	4b08      	ldr	r3, [pc, #32]	; (8001314 <SPI1_IRQHandler+0x50>)
 80012f2:	689b      	ldr	r3, [r3, #8]
 80012f4:	091b      	lsrs	r3, r3, #4
 80012f6:	f003 0301 	and.w	r3, r3, #1
 80012fa:	b2da      	uxtb	r2, r3
 80012fc:	793b      	ldrb	r3, [r7, #4]
 80012fe:	f362 0300 	bfi	r3, r2, #0, #1
 8001302:	713b      	strb	r3, [r7, #4]

	SPIx_IRQ_CallBack[0](src);
 8001304:	4b04      	ldr	r3, [pc, #16]	; (8001318 <SPI1_IRQHandler+0x54>)
 8001306:	681b      	ldr	r3, [r3, #0]
 8001308:	7938      	ldrb	r0, [r7, #4]
 800130a:	4798      	blx	r3
}
 800130c:	bf00      	nop
 800130e:	3708      	adds	r7, #8
 8001310:	46bd      	mov	sp, r7
 8001312:	bd80      	pop	{r7, pc}
 8001314:	40013000 	.word	0x40013000
 8001318:	20000078 	.word	0x20000078

0800131c <SPI2_IRQHandler>:

void SPI2_IRQHandler(void)
{
 800131c:	b580      	push	{r7, lr}
 800131e:	b082      	sub	sp, #8
 8001320:	af00      	add	r7, sp, #0
	SPI_IRQ_SRC_t src;
	src.TXE = ((SPI2->SPI_SR >> 1) & 1);
 8001322:	4b12      	ldr	r3, [pc, #72]	; (800136c <SPI2_IRQHandler+0x50>)
 8001324:	689b      	ldr	r3, [r3, #8]
 8001326:	085b      	lsrs	r3, r3, #1
 8001328:	f003 0301 	and.w	r3, r3, #1
 800132c:	b2da      	uxtb	r2, r3
 800132e:	793b      	ldrb	r3, [r7, #4]
 8001330:	f362 0300 	bfi	r3, r2, #0, #1
 8001334:	713b      	strb	r3, [r7, #4]
	src.RXNE = ((SPI2->SPI_SR >> 0) & 1);
 8001336:	4b0d      	ldr	r3, [pc, #52]	; (800136c <SPI2_IRQHandler+0x50>)
 8001338:	689b      	ldr	r3, [r3, #8]
 800133a:	f003 0301 	and.w	r3, r3, #1
 800133e:	b2da      	uxtb	r2, r3
 8001340:	793b      	ldrb	r3, [r7, #4]
 8001342:	f362 0341 	bfi	r3, r2, #1, #1
 8001346:	713b      	strb	r3, [r7, #4]
	src.TXE = ((SPI2->SPI_SR >> 4) & 1);
 8001348:	4b08      	ldr	r3, [pc, #32]	; (800136c <SPI2_IRQHandler+0x50>)
 800134a:	689b      	ldr	r3, [r3, #8]
 800134c:	091b      	lsrs	r3, r3, #4
 800134e:	f003 0301 	and.w	r3, r3, #1
 8001352:	b2da      	uxtb	r2, r3
 8001354:	793b      	ldrb	r3, [r7, #4]
 8001356:	f362 0300 	bfi	r3, r2, #0, #1
 800135a:	713b      	strb	r3, [r7, #4]

	SPIx_IRQ_CallBack[1](src);
 800135c:	4b04      	ldr	r3, [pc, #16]	; (8001370 <SPI2_IRQHandler+0x54>)
 800135e:	685b      	ldr	r3, [r3, #4]
 8001360:	7938      	ldrb	r0, [r7, #4]
 8001362:	4798      	blx	r3
}
 8001364:	bf00      	nop
 8001366:	3708      	adds	r7, #8
 8001368:	46bd      	mov	sp, r7
 800136a:	bd80      	pop	{r7, pc}
 800136c:	40003800 	.word	0x40003800
 8001370:	20000078 	.word	0x20000078

08001374 <USARTx_Init>:
/*=======================================================
* Functions definition
* =======================================================*/

void USARTx_Init(USARTx_Config_t* USARTx_Config)
{
 8001374:	b580      	push	{r7, lr}
 8001376:	b088      	sub	sp, #32
 8001378:	af00      	add	r7, sp, #0
 800137a:	6078      	str	r0, [r7, #4]
	GPIO_Pin_Config TX;
	GPIO_Pin_Config RX;



	if(USARTx_Config->USARTx == USART1)
 800137c:	687b      	ldr	r3, [r7, #4]
 800137e:	681b      	ldr	r3, [r3, #0]
 8001380:	4a70      	ldr	r2, [pc, #448]	; (8001544 <USARTx_Init+0x1d0>)
 8001382:	4293      	cmp	r3, r2
 8001384:	d152      	bne.n	800142c <USARTx_Init+0xb8>
	{
		RCC_GPIOA_CLK_EN();
 8001386:	4b70      	ldr	r3, [pc, #448]	; (8001548 <USARTx_Init+0x1d4>)
 8001388:	699b      	ldr	r3, [r3, #24]
 800138a:	4a6f      	ldr	r2, [pc, #444]	; (8001548 <USARTx_Init+0x1d4>)
 800138c:	f043 0304 	orr.w	r3, r3, #4
 8001390:	6193      	str	r3, [r2, #24]
		RCC_AFIO_CLK_EN();
 8001392:	4b6d      	ldr	r3, [pc, #436]	; (8001548 <USARTx_Init+0x1d4>)
 8001394:	699b      	ldr	r3, [r3, #24]
 8001396:	4a6c      	ldr	r2, [pc, #432]	; (8001548 <USARTx_Init+0x1d4>)
 8001398:	f043 0301 	orr.w	r3, r3, #1
 800139c:	6193      	str	r3, [r2, #24]
		RCC_USART1_CLK_EN();
 800139e:	4b6a      	ldr	r3, [pc, #424]	; (8001548 <USARTx_Init+0x1d4>)
 80013a0:	699b      	ldr	r3, [r3, #24]
 80013a2:	4a69      	ldr	r2, [pc, #420]	; (8001548 <USARTx_Init+0x1d4>)
 80013a4:	f443 4380 	orr.w	r3, r3, #16384	; 0x4000
 80013a8:	6193      	str	r3, [r2, #24]
		PCLK = RCC_GetPCLK2Freq();
 80013aa:	f7ff ff71 	bl	8001290 <RCC_GetPCLK2Freq>
 80013ae:	4603      	mov	r3, r0
 80013b0:	4a66      	ldr	r2, [pc, #408]	; (800154c <USARTx_Init+0x1d8>)
 80013b2:	6013      	str	r3, [r2, #0]

		USARTx_IRQ_CallBack[0] = USARTx_Config->USARTx_IRQ_CallBack;
 80013b4:	687b      	ldr	r3, [r7, #4]
 80013b6:	691b      	ldr	r3, [r3, #16]
 80013b8:	4a65      	ldr	r2, [pc, #404]	; (8001550 <USARTx_Init+0x1dc>)
 80013ba:	6013      	str	r3, [r2, #0]

		if(USARTx_Config->USART_Interrupt_Status == USART_RX_withInterrupt_Enable)
 80013bc:	687b      	ldr	r3, [r7, #4]
 80013be:	799b      	ldrb	r3, [r3, #6]
 80013c0:	2b00      	cmp	r3, #0
 80013c2:	d10e      	bne.n	80013e2 <USARTx_Init+0x6e>
		{
			NVIC_USART1_Enable;
 80013c4:	4b63      	ldr	r3, [pc, #396]	; (8001554 <USARTx_Init+0x1e0>)
 80013c6:	681b      	ldr	r3, [r3, #0]
 80013c8:	4a62      	ldr	r2, [pc, #392]	; (8001554 <USARTx_Init+0x1e0>)
 80013ca:	f043 0320 	orr.w	r3, r3, #32
 80013ce:	6013      	str	r3, [r2, #0]
			USARTx_Config->USARTx->USART_CR1 |= (1 << 5);
 80013d0:	687b      	ldr	r3, [r7, #4]
 80013d2:	681b      	ldr	r3, [r3, #0]
 80013d4:	68da      	ldr	r2, [r3, #12]
 80013d6:	687b      	ldr	r3, [r7, #4]
 80013d8:	681b      	ldr	r3, [r3, #0]
 80013da:	f042 0220 	orr.w	r2, r2, #32
 80013de:	60da      	str	r2, [r3, #12]
 80013e0:	e00d      	b.n	80013fe <USARTx_Init+0x8a>
		}
		else
		{
			NVIC_USART1_Disable;
 80013e2:	4b5d      	ldr	r3, [pc, #372]	; (8001558 <USARTx_Init+0x1e4>)
 80013e4:	681b      	ldr	r3, [r3, #0]
 80013e6:	4a5c      	ldr	r2, [pc, #368]	; (8001558 <USARTx_Init+0x1e4>)
 80013e8:	f043 0320 	orr.w	r3, r3, #32
 80013ec:	6013      	str	r3, [r2, #0]
			USARTx_Config->USARTx->USART_CR1 &= ~(1 << 5);
 80013ee:	687b      	ldr	r3, [r7, #4]
 80013f0:	681b      	ldr	r3, [r3, #0]
 80013f2:	68da      	ldr	r2, [r3, #12]
 80013f4:	687b      	ldr	r3, [r7, #4]
 80013f6:	681b      	ldr	r3, [r3, #0]
 80013f8:	f022 0220 	bic.w	r2, r2, #32
 80013fc:	60da      	str	r2, [r3, #12]
		}

		TX.GPIO_PinNumber = GPIOx_PIN_9;
 80013fe:	2309      	movs	r3, #9
 8001400:	823b      	strh	r3, [r7, #16]
		TX.GPIO_PinMode = GPIO_MODE_AFIO_PP;
 8001402:	2306      	movs	r3, #6
 8001404:	74bb      	strb	r3, [r7, #18]
		TX.GPIO_PinSpeed = GPIO_SPEED_10MHZ;
 8001406:	2301      	movs	r3, #1
 8001408:	74fb      	strb	r3, [r7, #19]

		RX.GPIO_PinNumber = GPIOx_PIN_10;
 800140a:	230a      	movs	r3, #10
 800140c:	81bb      	strh	r3, [r7, #12]
		RX.GPIO_PinMode = GPIO_MODE_INPUT_FLOATING;
 800140e:	2301      	movs	r3, #1
 8001410:	73bb      	strb	r3, [r7, #14]

		MCAL_GPIO_Init(GPIOA , &TX);
 8001412:	f107 0310 	add.w	r3, r7, #16
 8001416:	4619      	mov	r1, r3
 8001418:	4850      	ldr	r0, [pc, #320]	; (800155c <USARTx_Init+0x1e8>)
 800141a:	f7ff fdfd 	bl	8001018 <MCAL_GPIO_Init>
		MCAL_GPIO_Init(GPIOA , &RX);
 800141e:	f107 030c 	add.w	r3, r7, #12
 8001422:	4619      	mov	r1, r3
 8001424:	484d      	ldr	r0, [pc, #308]	; (800155c <USARTx_Init+0x1e8>)
 8001426:	f7ff fdf7 	bl	8001018 <MCAL_GPIO_Init>
 800142a:	e0c1      	b.n	80015b0 <USARTx_Init+0x23c>

	}
	else if(USARTx_Config->USARTx == USART2)
 800142c:	687b      	ldr	r3, [r7, #4]
 800142e:	681b      	ldr	r3, [r3, #0]
 8001430:	4a4b      	ldr	r2, [pc, #300]	; (8001560 <USARTx_Init+0x1ec>)
 8001432:	4293      	cmp	r3, r2
 8001434:	d152      	bne.n	80014dc <USARTx_Init+0x168>
	{
		RCC_GPIOA_CLK_EN();
 8001436:	4b44      	ldr	r3, [pc, #272]	; (8001548 <USARTx_Init+0x1d4>)
 8001438:	699b      	ldr	r3, [r3, #24]
 800143a:	4a43      	ldr	r2, [pc, #268]	; (8001548 <USARTx_Init+0x1d4>)
 800143c:	f043 0304 	orr.w	r3, r3, #4
 8001440:	6193      	str	r3, [r2, #24]
		RCC_AFIO_CLK_EN();
 8001442:	4b41      	ldr	r3, [pc, #260]	; (8001548 <USARTx_Init+0x1d4>)
 8001444:	699b      	ldr	r3, [r3, #24]
 8001446:	4a40      	ldr	r2, [pc, #256]	; (8001548 <USARTx_Init+0x1d4>)
 8001448:	f043 0301 	orr.w	r3, r3, #1
 800144c:	6193      	str	r3, [r2, #24]
		RCC_USART2_CLK_EN();
 800144e:	4b3e      	ldr	r3, [pc, #248]	; (8001548 <USARTx_Init+0x1d4>)
 8001450:	69db      	ldr	r3, [r3, #28]
 8001452:	4a3d      	ldr	r2, [pc, #244]	; (8001548 <USARTx_Init+0x1d4>)
 8001454:	f443 3300 	orr.w	r3, r3, #131072	; 0x20000
 8001458:	61d3      	str	r3, [r2, #28]

		PCLK = RCC_GetPCLK1Freq();
 800145a:	f7ff feff 	bl	800125c <RCC_GetPCLK1Freq>
 800145e:	4603      	mov	r3, r0
 8001460:	4a3a      	ldr	r2, [pc, #232]	; (800154c <USARTx_Init+0x1d8>)
 8001462:	6013      	str	r3, [r2, #0]

		USARTx_IRQ_CallBack[1] = USARTx_Config->USARTx_IRQ_CallBack;
 8001464:	687b      	ldr	r3, [r7, #4]
 8001466:	691b      	ldr	r3, [r3, #16]
 8001468:	4a39      	ldr	r2, [pc, #228]	; (8001550 <USARTx_Init+0x1dc>)
 800146a:	6053      	str	r3, [r2, #4]

		if(USARTx_Config->USART_Interrupt_Status == USART_RX_withInterrupt_Enable)
 800146c:	687b      	ldr	r3, [r7, #4]
 800146e:	799b      	ldrb	r3, [r3, #6]
 8001470:	2b00      	cmp	r3, #0
 8001472:	d10e      	bne.n	8001492 <USARTx_Init+0x11e>
		{
			NVIC_USART2_Enable;
 8001474:	4b37      	ldr	r3, [pc, #220]	; (8001554 <USARTx_Init+0x1e0>)
 8001476:	681b      	ldr	r3, [r3, #0]
 8001478:	4a36      	ldr	r2, [pc, #216]	; (8001554 <USARTx_Init+0x1e0>)
 800147a:	f043 0340 	orr.w	r3, r3, #64	; 0x40
 800147e:	6013      	str	r3, [r2, #0]
			USARTx_Config->USARTx->USART_CR1 |= (1 << 5);
 8001480:	687b      	ldr	r3, [r7, #4]
 8001482:	681b      	ldr	r3, [r3, #0]
 8001484:	68da      	ldr	r2, [r3, #12]
 8001486:	687b      	ldr	r3, [r7, #4]
 8001488:	681b      	ldr	r3, [r3, #0]
 800148a:	f042 0220 	orr.w	r2, r2, #32
 800148e:	60da      	str	r2, [r3, #12]
 8001490:	e00d      	b.n	80014ae <USARTx_Init+0x13a>
		}
		else
		{
			NVIC_USART2_Disable;
 8001492:	4b31      	ldr	r3, [pc, #196]	; (8001558 <USARTx_Init+0x1e4>)
 8001494:	681b      	ldr	r3, [r3, #0]
 8001496:	4a30      	ldr	r2, [pc, #192]	; (8001558 <USARTx_Init+0x1e4>)
 8001498:	f043 0340 	orr.w	r3, r3, #64	; 0x40
 800149c:	6013      	str	r3, [r2, #0]
			USARTx_Config->USARTx->USART_CR1 &= ~(1 << 5);
 800149e:	687b      	ldr	r3, [r7, #4]
 80014a0:	681b      	ldr	r3, [r3, #0]
 80014a2:	68da      	ldr	r2, [r3, #12]
 80014a4:	687b      	ldr	r3, [r7, #4]
 80014a6:	681b      	ldr	r3, [r3, #0]
 80014a8:	f022 0220 	bic.w	r2, r2, #32
 80014ac:	60da      	str	r2, [r3, #12]
		}

		TX.GPIO_PinNumber = GPIOx_PIN_2;
 80014ae:	2302      	movs	r3, #2
 80014b0:	823b      	strh	r3, [r7, #16]
		TX.GPIO_PinMode = GPIO_MODE_AFIO_PP;
 80014b2:	2306      	movs	r3, #6
 80014b4:	74bb      	strb	r3, [r7, #18]
		TX.GPIO_PinSpeed = GPIO_SPEED_10MHZ;
 80014b6:	2301      	movs	r3, #1
 80014b8:	74fb      	strb	r3, [r7, #19]

		RX.GPIO_PinNumber = GPIOx_PIN_3;
 80014ba:	2303      	movs	r3, #3
 80014bc:	81bb      	strh	r3, [r7, #12]
		RX.GPIO_PinMode = GPIO_MODE_INPUT_FLOATING;
 80014be:	2301      	movs	r3, #1
 80014c0:	73bb      	strb	r3, [r7, #14]

		MCAL_GPIO_Init(GPIOA , &TX);
 80014c2:	f107 0310 	add.w	r3, r7, #16
 80014c6:	4619      	mov	r1, r3
 80014c8:	4824      	ldr	r0, [pc, #144]	; (800155c <USARTx_Init+0x1e8>)
 80014ca:	f7ff fda5 	bl	8001018 <MCAL_GPIO_Init>
		MCAL_GPIO_Init(GPIOA , &RX);
 80014ce:	f107 030c 	add.w	r3, r7, #12
 80014d2:	4619      	mov	r1, r3
 80014d4:	4821      	ldr	r0, [pc, #132]	; (800155c <USARTx_Init+0x1e8>)
 80014d6:	f7ff fd9f 	bl	8001018 <MCAL_GPIO_Init>
 80014da:	e069      	b.n	80015b0 <USARTx_Init+0x23c>

	}
	else if(USARTx_Config->USARTx == USART3)
 80014dc:	687b      	ldr	r3, [r7, #4]
 80014de:	681b      	ldr	r3, [r3, #0]
 80014e0:	4a20      	ldr	r2, [pc, #128]	; (8001564 <USARTx_Init+0x1f0>)
 80014e2:	4293      	cmp	r3, r2
 80014e4:	d164      	bne.n	80015b0 <USARTx_Init+0x23c>
	{
		RCC_GPIOB_CLK_EN();
 80014e6:	4b18      	ldr	r3, [pc, #96]	; (8001548 <USARTx_Init+0x1d4>)
 80014e8:	699b      	ldr	r3, [r3, #24]
 80014ea:	4a17      	ldr	r2, [pc, #92]	; (8001548 <USARTx_Init+0x1d4>)
 80014ec:	f043 0308 	orr.w	r3, r3, #8
 80014f0:	6193      	str	r3, [r2, #24]
		RCC_AFIO_CLK_EN();
 80014f2:	4b15      	ldr	r3, [pc, #84]	; (8001548 <USARTx_Init+0x1d4>)
 80014f4:	699b      	ldr	r3, [r3, #24]
 80014f6:	4a14      	ldr	r2, [pc, #80]	; (8001548 <USARTx_Init+0x1d4>)
 80014f8:	f043 0301 	orr.w	r3, r3, #1
 80014fc:	6193      	str	r3, [r2, #24]
		RCC_USART3_CLK_EN();
 80014fe:	4b12      	ldr	r3, [pc, #72]	; (8001548 <USARTx_Init+0x1d4>)
 8001500:	69db      	ldr	r3, [r3, #28]
 8001502:	4a11      	ldr	r2, [pc, #68]	; (8001548 <USARTx_Init+0x1d4>)
 8001504:	f443 2380 	orr.w	r3, r3, #262144	; 0x40000
 8001508:	61d3      	str	r3, [r2, #28]
		PCLK = RCC_GetPCLK1Freq();
 800150a:	f7ff fea7 	bl	800125c <RCC_GetPCLK1Freq>
 800150e:	4603      	mov	r3, r0
 8001510:	4a0e      	ldr	r2, [pc, #56]	; (800154c <USARTx_Init+0x1d8>)
 8001512:	6013      	str	r3, [r2, #0]

		USARTx_IRQ_CallBack[2] = USARTx_Config->USARTx_IRQ_CallBack;
 8001514:	687b      	ldr	r3, [r7, #4]
 8001516:	691b      	ldr	r3, [r3, #16]
 8001518:	4a0d      	ldr	r2, [pc, #52]	; (8001550 <USARTx_Init+0x1dc>)
 800151a:	6093      	str	r3, [r2, #8]

		if(USARTx_Config->USART_Interrupt_Status == USART_RX_withInterrupt_Enable)
 800151c:	687b      	ldr	r3, [r7, #4]
 800151e:	799b      	ldrb	r3, [r3, #6]
 8001520:	2b00      	cmp	r3, #0
 8001522:	d121      	bne.n	8001568 <USARTx_Init+0x1f4>
		{
			NVIC_USART3_Enable;
 8001524:	4b0b      	ldr	r3, [pc, #44]	; (8001554 <USARTx_Init+0x1e0>)
 8001526:	681b      	ldr	r3, [r3, #0]
 8001528:	4a0a      	ldr	r2, [pc, #40]	; (8001554 <USARTx_Init+0x1e0>)
 800152a:	f043 0380 	orr.w	r3, r3, #128	; 0x80
 800152e:	6013      	str	r3, [r2, #0]
			USARTx_Config->USARTx->USART_CR1 |= (1 << 5);
 8001530:	687b      	ldr	r3, [r7, #4]
 8001532:	681b      	ldr	r3, [r3, #0]
 8001534:	68da      	ldr	r2, [r3, #12]
 8001536:	687b      	ldr	r3, [r7, #4]
 8001538:	681b      	ldr	r3, [r3, #0]
 800153a:	f042 0220 	orr.w	r2, r2, #32
 800153e:	60da      	str	r2, [r3, #12]
 8001540:	e020      	b.n	8001584 <USARTx_Init+0x210>
 8001542:	bf00      	nop
 8001544:	40013800 	.word	0x40013800
 8001548:	40021000 	.word	0x40021000
 800154c:	2000008c 	.word	0x2000008c
 8001550:	20000080 	.word	0x20000080
 8001554:	e000e104 	.word	0xe000e104
 8001558:	e000e184 	.word	0xe000e184
 800155c:	40010800 	.word	0x40010800
 8001560:	40004400 	.word	0x40004400
 8001564:	40004800 	.word	0x40004800
		}
		else
		{
			NVIC_USART3_Disable;
 8001568:	4b62      	ldr	r3, [pc, #392]	; (80016f4 <USARTx_Init+0x380>)
 800156a:	681b      	ldr	r3, [r3, #0]
 800156c:	4a61      	ldr	r2, [pc, #388]	; (80016f4 <USARTx_Init+0x380>)
 800156e:	f043 0380 	orr.w	r3, r3, #128	; 0x80
 8001572:	6013      	str	r3, [r2, #0]
			USARTx_Config->USARTx->USART_CR1 &= ~(1 << 5);
 8001574:	687b      	ldr	r3, [r7, #4]
 8001576:	681b      	ldr	r3, [r3, #0]
 8001578:	68da      	ldr	r2, [r3, #12]
 800157a:	687b      	ldr	r3, [r7, #4]
 800157c:	681b      	ldr	r3, [r3, #0]
 800157e:	f022 0220 	bic.w	r2, r2, #32
 8001582:	60da      	str	r2, [r3, #12]
		}

		TX.GPIO_PinNumber = GPIOx_PIN_10;
 8001584:	230a      	movs	r3, #10
 8001586:	823b      	strh	r3, [r7, #16]
		TX.GPIO_PinMode = GPIO_MODE_AFIO_PP;
 8001588:	2306      	movs	r3, #6
 800158a:	74bb      	strb	r3, [r7, #18]
		TX.GPIO_PinSpeed = GPIO_SPEED_10MHZ;
 800158c:	2301      	movs	r3, #1
 800158e:	74fb      	strb	r3, [r7, #19]

		RX.GPIO_PinNumber = GPIOx_PIN_11;
 8001590:	230b      	movs	r3, #11
 8001592:	81bb      	strh	r3, [r7, #12]
		RX.GPIO_PinMode = GPIO_MODE_INPUT_FLOATING;
 8001594:	2301      	movs	r3, #1
 8001596:	73bb      	strb	r3, [r7, #14]

		MCAL_GPIO_Init(GPIOB , &TX);
 8001598:	f107 0310 	add.w	r3, r7, #16
 800159c:	4619      	mov	r1, r3
 800159e:	4856      	ldr	r0, [pc, #344]	; (80016f8 <USARTx_Init+0x384>)
 80015a0:	f7ff fd3a 	bl	8001018 <MCAL_GPIO_Init>
		MCAL_GPIO_Init(GPIOB , &RX);
 80015a4:	f107 030c 	add.w	r3, r7, #12
 80015a8:	4619      	mov	r1, r3
 80015aa:	4853      	ldr	r0, [pc, #332]	; (80016f8 <USARTx_Init+0x384>)
 80015ac:	f7ff fd34 	bl	8001018 <MCAL_GPIO_Init>

	}
	else{}

	// Program the M bit in USART_CR1 to define the word length
	USARTx_Config->USARTx->USART_CR1 &= ~(1 << 12); //Firstly, reset the M bit
 80015b0:	687b      	ldr	r3, [r7, #4]
 80015b2:	681b      	ldr	r3, [r3, #0]
 80015b4:	68da      	ldr	r2, [r3, #12]
 80015b6:	687b      	ldr	r3, [r7, #4]
 80015b8:	681b      	ldr	r3, [r3, #0]
 80015ba:	f422 5280 	bic.w	r2, r2, #4096	; 0x1000
 80015be:	60da      	str	r2, [r3, #12]
	USARTx_Config->USARTx->USART_CR1 |= (USARTx_Config->USART_DataLength << 12);
 80015c0:	687b      	ldr	r3, [r7, #4]
 80015c2:	681b      	ldr	r3, [r3, #0]
 80015c4:	68da      	ldr	r2, [r3, #12]
 80015c6:	687b      	ldr	r3, [r7, #4]
 80015c8:	7b1b      	ldrb	r3, [r3, #12]
 80015ca:	031b      	lsls	r3, r3, #12
 80015cc:	4619      	mov	r1, r3
 80015ce:	687b      	ldr	r3, [r7, #4]
 80015d0:	681b      	ldr	r3, [r3, #0]
 80015d2:	430a      	orrs	r2, r1
 80015d4:	60da      	str	r2, [r3, #12]

	//  Program the number of stop bits in USART_CR2
	USARTx_Config->USARTx->USART_CR2 &= ~(0b11 << 12); //Firstly, reset the 2 stop bits 12, 13
 80015d6:	687b      	ldr	r3, [r7, #4]
 80015d8:	681b      	ldr	r3, [r3, #0]
 80015da:	691a      	ldr	r2, [r3, #16]
 80015dc:	687b      	ldr	r3, [r7, #4]
 80015de:	681b      	ldr	r3, [r3, #0]
 80015e0:	f422 5240 	bic.w	r2, r2, #12288	; 0x3000
 80015e4:	611a      	str	r2, [r3, #16]
	USARTx_Config->USARTx->USART_CR2 |= (USARTx_Config->USART_StopBits << 12);
 80015e6:	687b      	ldr	r3, [r7, #4]
 80015e8:	681b      	ldr	r3, [r3, #0]
 80015ea:	691a      	ldr	r2, [r3, #16]
 80015ec:	687b      	ldr	r3, [r7, #4]
 80015ee:	7b5b      	ldrb	r3, [r3, #13]
 80015f0:	031b      	lsls	r3, r3, #12
 80015f2:	4619      	mov	r1, r3
 80015f4:	687b      	ldr	r3, [r7, #4]
 80015f6:	681b      	ldr	r3, [r3, #0]
 80015f8:	430a      	orrs	r2, r1
 80015fa:	611a      	str	r2, [r3, #16]

	//  Set the TE/ or RE or Both - in USART_CR1 to send/receive data
	if(USARTx_Config->USART_TX_RX_Mode == USART_TX_Only)
 80015fc:	687b      	ldr	r3, [r7, #4]
 80015fe:	791b      	ldrb	r3, [r3, #4]
 8001600:	2b00      	cmp	r3, #0
 8001602:	d110      	bne.n	8001626 <USARTx_Init+0x2b2>
	{
		USARTx_Config->USARTx->USART_CR1 |= (1 << 3);  //Transmitter enabled
 8001604:	687b      	ldr	r3, [r7, #4]
 8001606:	681b      	ldr	r3, [r3, #0]
 8001608:	68da      	ldr	r2, [r3, #12]
 800160a:	687b      	ldr	r3, [r7, #4]
 800160c:	681b      	ldr	r3, [r3, #0]
 800160e:	f042 0208 	orr.w	r2, r2, #8
 8001612:	60da      	str	r2, [r3, #12]
		USARTx_Config->USARTx->USART_CR1 &= ~(1 << 2); //Receiver disabled
 8001614:	687b      	ldr	r3, [r7, #4]
 8001616:	681b      	ldr	r3, [r3, #0]
 8001618:	68da      	ldr	r2, [r3, #12]
 800161a:	687b      	ldr	r3, [r7, #4]
 800161c:	681b      	ldr	r3, [r3, #0]
 800161e:	f022 0204 	bic.w	r2, r2, #4
 8001622:	60da      	str	r2, [r3, #12]
 8001624:	e028      	b.n	8001678 <USARTx_Init+0x304>
	}
	else if(USARTx_Config->USART_TX_RX_Mode == USART_RX_Only)
 8001626:	687b      	ldr	r3, [r7, #4]
 8001628:	791b      	ldrb	r3, [r3, #4]
 800162a:	2b01      	cmp	r3, #1
 800162c:	d110      	bne.n	8001650 <USARTx_Init+0x2dc>
	{
		USARTx_Config->USARTx->USART_CR1 &= ~(1 << 3);  //Transmitter Disabled
 800162e:	687b      	ldr	r3, [r7, #4]
 8001630:	681b      	ldr	r3, [r3, #0]
 8001632:	68da      	ldr	r2, [r3, #12]
 8001634:	687b      	ldr	r3, [r7, #4]
 8001636:	681b      	ldr	r3, [r3, #0]
 8001638:	f022 0208 	bic.w	r2, r2, #8
 800163c:	60da      	str	r2, [r3, #12]
		USARTx_Config->USARTx->USART_CR1 |=  (1 << 2); //Receiver Enabled
 800163e:	687b      	ldr	r3, [r7, #4]
 8001640:	681b      	ldr	r3, [r3, #0]
 8001642:	68da      	ldr	r2, [r3, #12]
 8001644:	687b      	ldr	r3, [r7, #4]
 8001646:	681b      	ldr	r3, [r3, #0]
 8001648:	f042 0204 	orr.w	r2, r2, #4
 800164c:	60da      	str	r2, [r3, #12]
 800164e:	e013      	b.n	8001678 <USARTx_Init+0x304>
	}
	else if(USARTx_Config->USART_TX_RX_Mode == USART_RX_TX)
 8001650:	687b      	ldr	r3, [r7, #4]
 8001652:	791b      	ldrb	r3, [r3, #4]
 8001654:	2b02      	cmp	r3, #2
 8001656:	d10f      	bne.n	8001678 <USARTx_Init+0x304>
	{
		USARTx_Config->USARTx->USART_CR1 |= (1 << 3);  //Transmitter Enabled
 8001658:	687b      	ldr	r3, [r7, #4]
 800165a:	681b      	ldr	r3, [r3, #0]
 800165c:	68da      	ldr	r2, [r3, #12]
 800165e:	687b      	ldr	r3, [r7, #4]
 8001660:	681b      	ldr	r3, [r3, #0]
 8001662:	f042 0208 	orr.w	r2, r2, #8
 8001666:	60da      	str	r2, [r3, #12]
		USARTx_Config->USARTx->USART_CR1 |= (1 << 2); //Receiver Enabled
 8001668:	687b      	ldr	r3, [r7, #4]
 800166a:	681b      	ldr	r3, [r3, #0]
 800166c:	68da      	ldr	r2, [r3, #12]
 800166e:	687b      	ldr	r3, [r7, #4]
 8001670:	681b      	ldr	r3, [r3, #0]
 8001672:	f042 0204 	orr.w	r2, r2, #4
 8001676:	60da      	str	r2, [r3, #12]
	}
	else{}

	uint32_t USARTDIV = (25 * PCLK) / (4 * USARTx_Config->USART_BaudRate);   // 25  
 8001678:	4b20      	ldr	r3, [pc, #128]	; (80016fc <USARTx_Init+0x388>)
 800167a:	681a      	ldr	r2, [r3, #0]
 800167c:	4613      	mov	r3, r2
 800167e:	009b      	lsls	r3, r3, #2
 8001680:	4413      	add	r3, r2
 8001682:	009a      	lsls	r2, r3, #2
 8001684:	441a      	add	r2, r3
 8001686:	687b      	ldr	r3, [r7, #4]
 8001688:	689b      	ldr	r3, [r3, #8]
 800168a:	009b      	lsls	r3, r3, #2
 800168c:	fbb2 f3f3 	udiv	r3, r2, r3
 8001690:	617b      	str	r3, [r7, #20]
	uint32_t Mantissa = USARTDIV / 100;
 8001692:	697b      	ldr	r3, [r7, #20]
 8001694:	4a1a      	ldr	r2, [pc, #104]	; (8001700 <USARTx_Init+0x38c>)
 8001696:	fba2 2303 	umull	r2, r3, r2, r3
 800169a:	095b      	lsrs	r3, r3, #5
 800169c:	61fb      	str	r3, [r7, #28]
	uint32_t Fraction = (((USARTDIV - (Mantissa * 100)) * 16) + 50) / 100;
 800169e:	69fb      	ldr	r3, [r7, #28]
 80016a0:	2264      	movs	r2, #100	; 0x64
 80016a2:	fb02 f303 	mul.w	r3, r2, r3
 80016a6:	697a      	ldr	r2, [r7, #20]
 80016a8:	1ad3      	subs	r3, r2, r3
 80016aa:	011b      	lsls	r3, r3, #4
 80016ac:	3332      	adds	r3, #50	; 0x32
 80016ae:	4a14      	ldr	r2, [pc, #80]	; (8001700 <USARTx_Init+0x38c>)
 80016b0:	fba2 2303 	umull	r2, r3, r2, r3
 80016b4:	095b      	lsrs	r3, r3, #5
 80016b6:	61bb      	str	r3, [r7, #24]

	if (Fraction > 15) {
 80016b8:	69bb      	ldr	r3, [r7, #24]
 80016ba:	2b0f      	cmp	r3, #15
 80016bc:	d904      	bls.n	80016c8 <USARTx_Init+0x354>
	    Mantissa += 1;
 80016be:	69fb      	ldr	r3, [r7, #28]
 80016c0:	3301      	adds	r3, #1
 80016c2:	61fb      	str	r3, [r7, #28]
	    Fraction = 0;
 80016c4:	2300      	movs	r3, #0
 80016c6:	61bb      	str	r3, [r7, #24]
	}

	USARTx_Config->USARTx->USART_BRR = (Mantissa << 4) | (Fraction & 0x0F);
 80016c8:	69fb      	ldr	r3, [r7, #28]
 80016ca:	0119      	lsls	r1, r3, #4
 80016cc:	69bb      	ldr	r3, [r7, #24]
 80016ce:	f003 020f 	and.w	r2, r3, #15
 80016d2:	687b      	ldr	r3, [r7, #4]
 80016d4:	681b      	ldr	r3, [r3, #0]
 80016d6:	430a      	orrs	r2, r1
 80016d8:	609a      	str	r2, [r3, #8]


	// Enable the USART by writing the UE bit in USART_CR1 register to 1
	USARTx_Config->USARTx->USART_CR1 |= (1 << 13);
 80016da:	687b      	ldr	r3, [r7, #4]
 80016dc:	681b      	ldr	r3, [r3, #0]
 80016de:	68da      	ldr	r2, [r3, #12]
 80016e0:	687b      	ldr	r3, [r7, #4]
 80016e2:	681b      	ldr	r3, [r3, #0]
 80016e4:	f442 5200 	orr.w	r2, r2, #8192	; 0x2000
 80016e8:	60da      	str	r2, [r3, #12]


}
 80016ea:	bf00      	nop
 80016ec:	3720      	adds	r7, #32
 80016ee:	46bd      	mov	sp, r7
 80016f0:	bd80      	pop	{r7, pc}
 80016f2:	bf00      	nop
 80016f4:	e000e184 	.word	0xe000e184
 80016f8:	40010c00 	.word	0x40010c00
 80016fc:	2000008c 	.word	0x2000008c
 8001700:	51eb851f 	.word	0x51eb851f

08001704 <USARTx_Write>:
	}
	return arr_char;
}

void  USARTx_Write(USART_typedef* USARTx, uint16_t value)
{
 8001704:	b480      	push	{r7}
 8001706:	b083      	sub	sp, #12
 8001708:	af00      	add	r7, sp, #0
 800170a:	6078      	str	r0, [r7, #4]
 800170c:	460b      	mov	r3, r1
 800170e:	807b      	strh	r3, [r7, #2]
	// wait until TXE=1. This indicates that the transmission of the last frame is complete.
	while(((USARTx->USART_SR >> 7)& 0b1) == 0);
 8001710:	bf00      	nop
 8001712:	687b      	ldr	r3, [r7, #4]
 8001714:	681b      	ldr	r3, [r3, #0]
 8001716:	09db      	lsrs	r3, r3, #7
 8001718:	f003 0301 	and.w	r3, r3, #1
 800171c:	2b00      	cmp	r3, #0
 800171e:	d0f8      	beq.n	8001712 <USARTx_Write+0xe>
	// Write the value to send in the USART_DR register
	USARTx->USART_DR = (uint16_t)value;
 8001720:	887a      	ldrh	r2, [r7, #2]
 8001722:	687b      	ldr	r3, [r7, #4]
 8001724:	605a      	str	r2, [r3, #4]
	 while(!((USARTx->USART_SR >> 6) & 1));
 8001726:	bf00      	nop
 8001728:	687b      	ldr	r3, [r7, #4]
 800172a:	681b      	ldr	r3, [r3, #0]
 800172c:	099b      	lsrs	r3, r3, #6
 800172e:	f003 0301 	and.w	r3, r3, #1
 8001732:	2b00      	cmp	r3, #0
 8001734:	d0f8      	beq.n	8001728 <USARTx_Write+0x24>
}
 8001736:	bf00      	nop
 8001738:	bf00      	nop
 800173a:	370c      	adds	r7, #12
 800173c:	46bd      	mov	sp, r7
 800173e:	bc80      	pop	{r7}
 8001740:	4770      	bx	lr

08001742 <USARTx_SendString>:
void  USARTx_SendString(USART_typedef* USARTx, uint8_t* str)
{
 8001742:	b580      	push	{r7, lr}
 8001744:	b084      	sub	sp, #16
 8001746:	af00      	add	r7, sp, #0
 8001748:	6078      	str	r0, [r7, #4]
 800174a:	6039      	str	r1, [r7, #0]
	uint8_t i = 0;
 800174c:	2300      	movs	r3, #0
 800174e:	73fb      	strb	r3, [r7, #15]
	while(str[i] != '\0')
 8001750:	e00b      	b.n	800176a <USARTx_SendString+0x28>
	{
		USARTx_Write(USARTx, (uint16_t)str[i]);
 8001752:	7bfb      	ldrb	r3, [r7, #15]
 8001754:	683a      	ldr	r2, [r7, #0]
 8001756:	4413      	add	r3, r2
 8001758:	781b      	ldrb	r3, [r3, #0]
 800175a:	b29b      	uxth	r3, r3
 800175c:	4619      	mov	r1, r3
 800175e:	6878      	ldr	r0, [r7, #4]
 8001760:	f7ff ffd0 	bl	8001704 <USARTx_Write>
		i++;
 8001764:	7bfb      	ldrb	r3, [r7, #15]
 8001766:	3301      	adds	r3, #1
 8001768:	73fb      	strb	r3, [r7, #15]
	while(str[i] != '\0')
 800176a:	7bfb      	ldrb	r3, [r7, #15]
 800176c:	683a      	ldr	r2, [r7, #0]
 800176e:	4413      	add	r3, r2
 8001770:	781b      	ldrb	r3, [r3, #0]
 8001772:	2b00      	cmp	r3, #0
 8001774:	d1ed      	bne.n	8001752 <USARTx_SendString+0x10>
	}
}
 8001776:	bf00      	nop
 8001778:	bf00      	nop
 800177a:	3710      	adds	r7, #16
 800177c:	46bd      	mov	sp, r7
 800177e:	bd80      	pop	{r7, pc}

08001780 <USART1_IRQHandler>:

void USART1_IRQHandler(void)
{
 8001780:	b580      	push	{r7, lr}
 8001782:	af00      	add	r7, sp, #0
	USARTx_IRQ_CallBack[0]();
 8001784:	4b02      	ldr	r3, [pc, #8]	; (8001790 <USART1_IRQHandler+0x10>)
 8001786:	681b      	ldr	r3, [r3, #0]
 8001788:	4798      	blx	r3
	//Clear Pending bit - Clear by writing 1
}
 800178a:	bf00      	nop
 800178c:	bd80      	pop	{r7, pc}
 800178e:	bf00      	nop
 8001790:	20000080 	.word	0x20000080

08001794 <USART2_IRQHandler>:

void USART2_IRQHandler(void)
{
 8001794:	b580      	push	{r7, lr}
 8001796:	af00      	add	r7, sp, #0
	USARTx_IRQ_CallBack[1]();
 8001798:	4b02      	ldr	r3, [pc, #8]	; (80017a4 <USART2_IRQHandler+0x10>)
 800179a:	685b      	ldr	r3, [r3, #4]
 800179c:	4798      	blx	r3

	//Clear Pending bit - Clear by writing 1
}
 800179e:	bf00      	nop
 80017a0:	bd80      	pop	{r7, pc}
 80017a2:	bf00      	nop
 80017a4:	20000080 	.word	0x20000080

080017a8 <USART3_IRQHandler>:

void USART3_IRQHandler(void)
{
 80017a8:	b580      	push	{r7, lr}
 80017aa:	af00      	add	r7, sp, #0
	USARTx_IRQ_CallBack[2]();
 80017ac:	4b02      	ldr	r3, [pc, #8]	; (80017b8 <USART3_IRQHandler+0x10>)
 80017ae:	689b      	ldr	r3, [r3, #8]
 80017b0:	4798      	blx	r3

	//Clear Pending bit - Clear by writing 1
}
 80017b2:	bf00      	nop
 80017b4:	bd80      	pop	{r7, pc}
 80017b6:	bf00      	nop
 80017b8:	20000080 	.word	0x20000080

080017bc <main>:
 */

#include "SACS.h"

int main(void)
{
 80017bc:	b580      	push	{r7, lr}
 80017be:	af00      	add	r7, sp, #0
	SACS_Init();
 80017c0:	f7fe fcd6 	bl	8000170 <SACS_Init>
	for(;;)
	{
		SACS_Start();
 80017c4:	f7fe fcfe 	bl	80001c4 <SACS_Start>
 80017c8:	e7fc      	b.n	80017c4 <main+0x8>
	...

080017cc <Reset_Handler>:

  .section .text.Reset_Handler
  .weak Reset_Handler
  .type Reset_Handler, %function
Reset_Handler:
  ldr   r0, =_estack
 80017cc:	480d      	ldr	r0, [pc, #52]	; (8001804 <LoopForever+0x2>)
  mov   sp, r0          /* set stack pointer */
 80017ce:	4685      	mov	sp, r0
/* Call the clock system initialization function.*/
  bl  SystemInit
 80017d0:	f3af 8000 	nop.w

/* Copy the data segment initializers from flash to SRAM */
  ldr r0, =_sdata
 80017d4:	480c      	ldr	r0, [pc, #48]	; (8001808 <LoopForever+0x6>)
  ldr r1, =_edata
 80017d6:	490d      	ldr	r1, [pc, #52]	; (800180c <LoopForever+0xa>)
  ldr r2, =_sidata
 80017d8:	4a0d      	ldr	r2, [pc, #52]	; (8001810 <LoopForever+0xe>)
  movs r3, #0
 80017da:	2300      	movs	r3, #0
  b LoopCopyDataInit
 80017dc:	e002      	b.n	80017e4 <LoopCopyDataInit>

080017de <CopyDataInit>:

CopyDataInit:
  ldr r4, [r2, r3]
 80017de:	58d4      	ldr	r4, [r2, r3]
  str r4, [r0, r3]
 80017e0:	50c4      	str	r4, [r0, r3]
  adds r3, r3, #4
 80017e2:	3304      	adds	r3, #4

080017e4 <LoopCopyDataInit>:

LoopCopyDataInit:
  adds r4, r0, r3
 80017e4:	18c4      	adds	r4, r0, r3
  cmp r4, r1
 80017e6:	428c      	cmp	r4, r1
  bcc CopyDataInit
 80017e8:	d3f9      	bcc.n	80017de <CopyDataInit>

/* Zero fill the bss segment. */
  ldr r2, =_sbss
 80017ea:	4a0a      	ldr	r2, [pc, #40]	; (8001814 <LoopForever+0x12>)
  ldr r4, =_ebss
 80017ec:	4c0a      	ldr	r4, [pc, #40]	; (8001818 <LoopForever+0x16>)
  movs r3, #0
 80017ee:	2300      	movs	r3, #0
  b LoopFillZerobss
 80017f0:	e001      	b.n	80017f6 <LoopFillZerobss>

080017f2 <FillZerobss>:

FillZerobss:
  str  r3, [r2]
 80017f2:	6013      	str	r3, [r2, #0]
  adds r2, r2, #4
 80017f4:	3204      	adds	r2, #4

080017f6 <LoopFillZerobss>:

LoopFillZerobss:
  cmp r2, r4
 80017f6:	42a2      	cmp	r2, r4
  bcc FillZerobss
 80017f8:	d3fb      	bcc.n	80017f2 <FillZerobss>

/* Call static constructors */
  bl __libc_init_array
 80017fa:	f000 f811 	bl	8001820 <__libc_init_array>
/* Call the application's entry point.*/
  bl main
 80017fe:	f7ff ffdd 	bl	80017bc <main>

08001802 <LoopForever>:

LoopForever:
    b LoopForever
 8001802:	e7fe      	b.n	8001802 <LoopForever>
  ldr   r0, =_estack
 8001804:	20005000 	.word	0x20005000
  ldr r0, =_sdata
 8001808:	20000000 	.word	0x20000000
  ldr r1, =_edata
 800180c:	2000001c 	.word	0x2000001c
  ldr r2, =_sidata
 8001810:	080018b8 	.word	0x080018b8
  ldr r2, =_sbss
 8001814:	2000001c 	.word	0x2000001c
  ldr r4, =_ebss
 8001818:	20000090 	.word	0x20000090

0800181c <ADC1_2_IRQHandler>:
 * @retval : None
*/
  .section .text.Default_Handler,"ax",%progbits
Default_Handler:
Infinite_Loop:
  b Infinite_Loop
 800181c:	e7fe      	b.n	800181c <ADC1_2_IRQHandler>
	...

08001820 <__libc_init_array>:
 8001820:	b570      	push	{r4, r5, r6, lr}
 8001822:	2600      	movs	r6, #0
 8001824:	4d0c      	ldr	r5, [pc, #48]	; (8001858 <__libc_init_array+0x38>)
 8001826:	4c0d      	ldr	r4, [pc, #52]	; (800185c <__libc_init_array+0x3c>)
 8001828:	1b64      	subs	r4, r4, r5
 800182a:	10a4      	asrs	r4, r4, #2
 800182c:	42a6      	cmp	r6, r4
 800182e:	d109      	bne.n	8001844 <__libc_init_array+0x24>
 8001830:	f000 f81a 	bl	8001868 <_init>
 8001834:	2600      	movs	r6, #0
 8001836:	4d0a      	ldr	r5, [pc, #40]	; (8001860 <__libc_init_array+0x40>)
 8001838:	4c0a      	ldr	r4, [pc, #40]	; (8001864 <__libc_init_array+0x44>)
 800183a:	1b64      	subs	r4, r4, r5
 800183c:	10a4      	asrs	r4, r4, #2
 800183e:	42a6      	cmp	r6, r4
 8001840:	d105      	bne.n	800184e <__libc_init_array+0x2e>
 8001842:	bd70      	pop	{r4, r5, r6, pc}
 8001844:	f855 3b04 	ldr.w	r3, [r5], #4
 8001848:	4798      	blx	r3
 800184a:	3601      	adds	r6, #1
 800184c:	e7ee      	b.n	800182c <__libc_init_array+0xc>
 800184e:	f855 3b04 	ldr.w	r3, [r5], #4
 8001852:	4798      	blx	r3
 8001854:	3601      	adds	r6, #1
 8001856:	e7f2      	b.n	800183e <__libc_init_array+0x1e>
 8001858:	080018b0 	.word	0x080018b0
 800185c:	080018b0 	.word	0x080018b0
 8001860:	080018b0 	.word	0x080018b0
 8001864:	080018b4 	.word	0x080018b4

08001868 <_init>:
 8001868:	b5f8      	push	{r3, r4, r5, r6, r7, lr}
 800186a:	bf00      	nop
 800186c:	bcf8      	pop	{r3, r4, r5, r6, r7}
 800186e:	bc08      	pop	{r3}
 8001870:	469e      	mov	lr, r3
 8001872:	4770      	bx	lr

08001874 <_fini>:
 8001874:	b5f8      	push	{r3, r4, r5, r6, r7, lr}
 8001876:	bf00      	nop
 8001878:	bcf8      	pop	{r3, r4, r5, r6, r7}
 800187a:	bc08      	pop	{r3}
 800187c:	469e      	mov	lr, r3
 800187e:	4770      	bx	lr
